

Microchip MPLAB XC8 Assembler V2.10 build 88905656 
                                                                                               Mon Apr 06 22:11:15 2020

Microchip MPLAB XC8 C Compiler v2.10 (Free license) build 20190730164152 Og1 
     1                           	processor	16F1824
     2                           	opt	pw 120
     3                           	opt	flic
     4                           	psect	idataBANK0,global,class=CODE,delta=2
     5                           	psect	cinit,global,class=CODE,merge=1,delta=2
     6                           	psect	bssBANK0,global,class=BANK0,space=1,delta=1
     7                           	psect	dataBANK0,global,class=BANK0,space=1,delta=1
     8                           	psect	inittext,global,class=CODE,delta=2
     9                           	psect	clrtext,global,class=CODE,delta=2
    10                           	psect	cstackCOMMON,global,class=COMMON,space=1,delta=1
    11                           	psect	cstackBANK0,global,class=BANK0,space=1,delta=1
    12                           	psect	maintext,global,class=CODE,merge=1,split=1,delta=2
    13                           	psect	text1,local,class=CODE,merge=1,delta=2
    14                           	psect	text2,local,class=CODE,merge=1,delta=2
    15                           	psect	text3,local,class=CODE,merge=1,delta=2
    16                           	psect	text4,local,class=CODE,merge=1,delta=2,group=1
    17                           	psect	text5,local,class=CODE,merge=1,delta=2,group=1
    18                           	psect	text6,local,class=CODE,merge=1,delta=2
    19                           	psect	text7,local,class=CODE,merge=1,delta=2
    20                           	psect	text8,local,class=CODE,merge=1,delta=2
    21                           	psect	text9,local,class=CODE,merge=1,delta=2
    22                           	psect	text10,local,class=CODE,merge=1,delta=2
    23                           	psect	text11,local,class=CODE,merge=1,delta=2
    24                           	psect	text12,local,class=CODE,merge=1,delta=2
    25                           	psect	text13,local,class=CODE,merge=1,delta=2
    26                           	psect	text14,local,class=CODE,merge=1,delta=2
    27                           	psect	text15,local,class=CODE,merge=1,delta=2
    28                           	psect	text16,local,class=CODE,merge=1,delta=2
    29                           	psect	text17,local,class=CODE,merge=1,delta=2
    30                           	psect	text18,local,class=CODE,merge=1,delta=2
    31                           	psect	text19,local,class=CODE,merge=1,delta=2
    32                           	psect	text20,local,class=CODE,merge=1,delta=2
    33                           	psect	text21,local,class=CODE,merge=1,delta=2,group=1
    34                           	psect	text22,local,class=CODE,merge=1,delta=2,group=1
    35                           	psect	intentry,global,class=CODE,delta=2
    36                           	dabs	1,0x7E,2
    37  0000                     
    38                           ; Version 2.10
    39                           ; Generated 31/07/2019 GMT
    40                           ; 
    41                           ; Copyright © 2019, Microchip Technology Inc. and its subsidiaries ("Microchip")
    42                           ; All rights reserved.
    43                           ; 
    44                           ; This software is developed by Microchip Technology Inc. and its subsidiaries ("Microch
      +                          ip").
    45                           ; 
    46                           ; Redistribution and use in source and binary forms, with or without modification, are
    47                           ; permitted provided that the following conditions are met:
    48                           ; 
    49                           ;     1. Redistributions of source code must retain the above copyright notice, this lis
      +                          t of
    50                           ;        conditions and the following disclaimer.
    51                           ; 
    52                           ;     2. Redistributions in binary form must reproduce the above copyright notice, this 
      +                          list
    53                           ;        of conditions and the following disclaimer in the documentation and/or other
    54                           ;        materials provided with the distribution.
    55                           ; 
    56                           ;     3. Microchip's name may not be used to endorse or promote products derived from th
      +                          is
    57                           ;        software without specific prior written permission.
    58                           ; 
    59                           ; THIS SOFTWARE IS PROVIDED BY MICROCHIP "AS IS" AND ANY EXPRESS OR IMPLIED WARRANTIES,
    60                           ; INCLUDING, BUT NOT LIMITED TO, THE IMPLIED WARRANTIES OF MERCHANTABILITY AND FITNESS F
      +                          OR
    61                           ; PURPOSE ARE DISCLAIMED.  IN NO EVENT SHALL MICROCHIP BE LIABLE FOR ANY DIRECT, INDIREC
      +                          T,
    62                           ; INCIDENTAL, SPECIAL, EXEMPLARY, OR CONSEQUENTIAL DAMAGES (INCLUDING BUT NOT LIMITED TO
    63                           ; PROCUREMENT OF SUBSTITUTE GOODS OR SERVICES; LOSS OF USE, DATA OR PROFITS; OR BUSINESS
    64                           ; INTERRUPTION) HOWSOEVER CAUSED AND ON ANY THEORY OF LIABILITY, WHETHER IN CONTRACT, ST
      +                          RICT
    65                           ; LIABILITY, OR TORT (INCLUDING NEGLIGENCE OR OTHERWISE) ARISING IN ANY WAY OUT OF THE U
      +                          SE OF
    66                           ; THIS SOFTWARE, EVEN IF ADVISED OF THE POSSIBILITY OF SUCH DAMAGE.
    67                           ; 
    68                           ; 
    69                           ; Code-generator required, PIC16F1824 Definitions
    70                           ; 
    71                           ; SFR Addresses
    72  0000                     	;# 
    73  0001                     	;# 
    74  0002                     	;# 
    75  0003                     	;# 
    76  0004                     	;# 
    77  0005                     	;# 
    78  0006                     	;# 
    79  0007                     	;# 
    80  0008                     	;# 
    81  0009                     	;# 
    82  000A                     	;# 
    83  000B                     	;# 
    84  000C                     	;# 
    85  000E                     	;# 
    86  0011                     	;# 
    87  0012                     	;# 
    88  0013                     	;# 
    89  0015                     	;# 
    90  0016                     	;# 
    91  0016                     	;# 
    92  0017                     	;# 
    93  0018                     	;# 
    94  0019                     	;# 
    95  001A                     	;# 
    96  001B                     	;# 
    97  001C                     	;# 
    98  001E                     	;# 
    99  001F                     	;# 
   100  008C                     	;# 
   101  008E                     	;# 
   102  0091                     	;# 
   103  0092                     	;# 
   104  0093                     	;# 
   105  0095                     	;# 
   106  0096                     	;# 
   107  0097                     	;# 
   108  0098                     	;# 
   109  0099                     	;# 
   110  009A                     	;# 
   111  009B                     	;# 
   112  009B                     	;# 
   113  009C                     	;# 
   114  009D                     	;# 
   115  009E                     	;# 
   116  010C                     	;# 
   117  010E                     	;# 
   118  0111                     	;# 
   119  0112                     	;# 
   120  0113                     	;# 
   121  0114                     	;# 
   122  0115                     	;# 
   123  0116                     	;# 
   124  0117                     	;# 
   125  0118                     	;# 
   126  0119                     	;# 
   127  011A                     	;# 
   128  011B                     	;# 
   129  011D                     	;# 
   130  011E                     	;# 
   131  018C                     	;# 
   132  018E                     	;# 
   133  0191                     	;# 
   134  0191                     	;# 
   135  0192                     	;# 
   136  0193                     	;# 
   137  0193                     	;# 
   138  0193                     	;# 
   139  0194                     	;# 
   140  0195                     	;# 
   141  0196                     	;# 
   142  0199                     	;# 
   143  019A                     	;# 
   144  019B                     	;# 
   145  019B                     	;# 
   146  019B                     	;# 
   147  019B                     	;# 
   148  019C                     	;# 
   149  019C                     	;# 
   150  019D                     	;# 
   151  019E                     	;# 
   152  019F                     	;# 
   153  020C                     	;# 
   154  020E                     	;# 
   155  0211                     	;# 
   156  0211                     	;# 
   157  0212                     	;# 
   158  0212                     	;# 
   159  0213                     	;# 
   160  0213                     	;# 
   161  0214                     	;# 
   162  0214                     	;# 
   163  0215                     	;# 
   164  0215                     	;# 
   165  0215                     	;# 
   166  0215                     	;# 
   167  0216                     	;# 
   168  0216                     	;# 
   169  0217                     	;# 
   170  0217                     	;# 
   171  0291                     	;# 
   172  0291                     	;# 
   173  0292                     	;# 
   174  0293                     	;# 
   175  0294                     	;# 
   176  0295                     	;# 
   177  0295                     	;# 
   178  0296                     	;# 
   179  0298                     	;# 
   180  0298                     	;# 
   181  0299                     	;# 
   182  029A                     	;# 
   183  029B                     	;# 
   184  029C                     	;# 
   185  029D                     	;# 
   186  029E                     	;# 
   187  029E                     	;# 
   188  0311                     	;# 
   189  0311                     	;# 
   190  0312                     	;# 
   191  0313                     	;# 
   192  0318                     	;# 
   193  0318                     	;# 
   194  0319                     	;# 
   195  031A                     	;# 
   196  038C                     	;# 
   197  038E                     	;# 
   198  0391                     	;# 
   199  0392                     	;# 
   200  0393                     	;# 
   201  039A                     	;# 
   202  039C                     	;# 
   203  039D                     	;# 
   204  039E                     	;# 
   205  039F                     	;# 
   206  0415                     	;# 
   207  0416                     	;# 
   208  0417                     	;# 
   209  041C                     	;# 
   210  041D                     	;# 
   211  041E                     	;# 
   212  0FE4                     	;# 
   213  0FE5                     	;# 
   214  0FE6                     	;# 
   215  0FE7                     	;# 
   216  0FE8                     	;# 
   217  0FE9                     	;# 
   218  0FEA                     	;# 
   219  0FEB                     	;# 
   220  0FED                     	;# 
   221  0FEE                     	;# 
   222  0FEF                     	;# 
   223  0000                     	;# 
   224  0001                     	;# 
   225  0002                     	;# 
   226  0003                     	;# 
   227  0004                     	;# 
   228  0005                     	;# 
   229  0006                     	;# 
   230  0007                     	;# 
   231  0008                     	;# 
   232  0009                     	;# 
   233  000A                     	;# 
   234  000B                     	;# 
   235  000C                     	;# 
   236  000E                     	;# 
   237  0011                     	;# 
   238  0012                     	;# 
   239  0013                     	;# 
   240  0015                     	;# 
   241  0016                     	;# 
   242  0016                     	;# 
   243  0017                     	;# 
   244  0018                     	;# 
   245  0019                     	;# 
   246  001A                     	;# 
   247  001B                     	;# 
   248  001C                     	;# 
   249  001E                     	;# 
   250  001F                     	;# 
   251  008C                     	;# 
   252  008E                     	;# 
   253  0091                     	;# 
   254  0092                     	;# 
   255  0093                     	;# 
   256  0095                     	;# 
   257  0096                     	;# 
   258  0097                     	;# 
   259  0098                     	;# 
   260  0099                     	;# 
   261  009A                     	;# 
   262  009B                     	;# 
   263  009B                     	;# 
   264  009C                     	;# 
   265  009D                     	;# 
   266  009E                     	;# 
   267  010C                     	;# 
   268  010E                     	;# 
   269  0111                     	;# 
   270  0112                     	;# 
   271  0113                     	;# 
   272  0114                     	;# 
   273  0115                     	;# 
   274  0116                     	;# 
   275  0117                     	;# 
   276  0118                     	;# 
   277  0119                     	;# 
   278  011A                     	;# 
   279  011B                     	;# 
   280  011D                     	;# 
   281  011E                     	;# 
   282  018C                     	;# 
   283  018E                     	;# 
   284  0191                     	;# 
   285  0191                     	;# 
   286  0192                     	;# 
   287  0193                     	;# 
   288  0193                     	;# 
   289  0193                     	;# 
   290  0194                     	;# 
   291  0195                     	;# 
   292  0196                     	;# 
   293  0199                     	;# 
   294  019A                     	;# 
   295  019B                     	;# 
   296  019B                     	;# 
   297  019B                     	;# 
   298  019B                     	;# 
   299  019C                     	;# 
   300  019C                     	;# 
   301  019D                     	;# 
   302  019E                     	;# 
   303  019F                     	;# 
   304  020C                     	;# 
   305  020E                     	;# 
   306  0211                     	;# 
   307  0211                     	;# 
   308  0212                     	;# 
   309  0212                     	;# 
   310  0213                     	;# 
   311  0213                     	;# 
   312  0214                     	;# 
   313  0214                     	;# 
   314  0215                     	;# 
   315  0215                     	;# 
   316  0215                     	;# 
   317  0215                     	;# 
   318  0216                     	;# 
   319  0216                     	;# 
   320  0217                     	;# 
   321  0217                     	;# 
   322  0291                     	;# 
   323  0291                     	;# 
   324  0292                     	;# 
   325  0293                     	;# 
   326  0294                     	;# 
   327  0295                     	;# 
   328  0295                     	;# 
   329  0296                     	;# 
   330  0298                     	;# 
   331  0298                     	;# 
   332  0299                     	;# 
   333  029A                     	;# 
   334  029B                     	;# 
   335  029C                     	;# 
   336  029D                     	;# 
   337  029E                     	;# 
   338  029E                     	;# 
   339  0311                     	;# 
   340  0311                     	;# 
   341  0312                     	;# 
   342  0313                     	;# 
   343  0318                     	;# 
   344  0318                     	;# 
   345  0319                     	;# 
   346  031A                     	;# 
   347  038C                     	;# 
   348  038E                     	;# 
   349  0391                     	;# 
   350  0392                     	;# 
   351  0393                     	;# 
   352  039A                     	;# 
   353  039C                     	;# 
   354  039D                     	;# 
   355  039E                     	;# 
   356  039F                     	;# 
   357  0415                     	;# 
   358  0416                     	;# 
   359  0417                     	;# 
   360  041C                     	;# 
   361  041D                     	;# 
   362  041E                     	;# 
   363  0FE4                     	;# 
   364  0FE5                     	;# 
   365  0FE6                     	;# 
   366  0FE7                     	;# 
   367  0FE8                     	;# 
   368  0FE9                     	;# 
   369  0FEA                     	;# 
   370  0FEB                     	;# 
   371  0FED                     	;# 
   372  0FEE                     	;# 
   373  0FEF                     	;# 
   374  0000                     	;# 
   375  0001                     	;# 
   376  0002                     	;# 
   377  0003                     	;# 
   378  0004                     	;# 
   379  0005                     	;# 
   380  0006                     	;# 
   381  0007                     	;# 
   382  0008                     	;# 
   383  0009                     	;# 
   384  000A                     	;# 
   385  000B                     	;# 
   386  000C                     	;# 
   387  000E                     	;# 
   388  0011                     	;# 
   389  0012                     	;# 
   390  0013                     	;# 
   391  0015                     	;# 
   392  0016                     	;# 
   393  0016                     	;# 
   394  0017                     	;# 
   395  0018                     	;# 
   396  0019                     	;# 
   397  001A                     	;# 
   398  001B                     	;# 
   399  001C                     	;# 
   400  001E                     	;# 
   401  001F                     	;# 
   402  008C                     	;# 
   403  008E                     	;# 
   404  0091                     	;# 
   405  0092                     	;# 
   406  0093                     	;# 
   407  0095                     	;# 
   408  0096                     	;# 
   409  0097                     	;# 
   410  0098                     	;# 
   411  0099                     	;# 
   412  009A                     	;# 
   413  009B                     	;# 
   414  009B                     	;# 
   415  009C                     	;# 
   416  009D                     	;# 
   417  009E                     	;# 
   418  010C                     	;# 
   419  010E                     	;# 
   420  0111                     	;# 
   421  0112                     	;# 
   422  0113                     	;# 
   423  0114                     	;# 
   424  0115                     	;# 
   425  0116                     	;# 
   426  0117                     	;# 
   427  0118                     	;# 
   428  0119                     	;# 
   429  011A                     	;# 
   430  011B                     	;# 
   431  011D                     	;# 
   432  011E                     	;# 
   433  018C                     	;# 
   434  018E                     	;# 
   435  0191                     	;# 
   436  0191                     	;# 
   437  0192                     	;# 
   438  0193                     	;# 
   439  0193                     	;# 
   440  0193                     	;# 
   441  0194                     	;# 
   442  0195                     	;# 
   443  0196                     	;# 
   444  0199                     	;# 
   445  019A                     	;# 
   446  019B                     	;# 
   447  019B                     	;# 
   448  019B                     	;# 
   449  019B                     	;# 
   450  019C                     	;# 
   451  019C                     	;# 
   452  019D                     	;# 
   453  019E                     	;# 
   454  019F                     	;# 
   455  020C                     	;# 
   456  020E                     	;# 
   457  0211                     	;# 
   458  0211                     	;# 
   459  0212                     	;# 
   460  0212                     	;# 
   461  0213                     	;# 
   462  0213                     	;# 
   463  0214                     	;# 
   464  0214                     	;# 
   465  0215                     	;# 
   466  0215                     	;# 
   467  0215                     	;# 
   468  0215                     	;# 
   469  0216                     	;# 
   470  0216                     	;# 
   471  0217                     	;# 
   472  0217                     	;# 
   473  0291                     	;# 
   474  0291                     	;# 
   475  0292                     	;# 
   476  0293                     	;# 
   477  0294                     	;# 
   478  0295                     	;# 
   479  0295                     	;# 
   480  0296                     	;# 
   481  0298                     	;# 
   482  0298                     	;# 
   483  0299                     	;# 
   484  029A                     	;# 
   485  029B                     	;# 
   486  029C                     	;# 
   487  029D                     	;# 
   488  029E                     	;# 
   489  029E                     	;# 
   490  0311                     	;# 
   491  0311                     	;# 
   492  0312                     	;# 
   493  0313                     	;# 
   494  0318                     	;# 
   495  0318                     	;# 
   496  0319                     	;# 
   497  031A                     	;# 
   498  038C                     	;# 
   499  038E                     	;# 
   500  0391                     	;# 
   501  0392                     	;# 
   502  0393                     	;# 
   503  039A                     	;# 
   504  039C                     	;# 
   505  039D                     	;# 
   506  039E                     	;# 
   507  039F                     	;# 
   508  0415                     	;# 
   509  0416                     	;# 
   510  0417                     	;# 
   511  041C                     	;# 
   512  041D                     	;# 
   513  041E                     	;# 
   514  0FE4                     	;# 
   515  0FE5                     	;# 
   516  0FE6                     	;# 
   517  0FE7                     	;# 
   518  0FE8                     	;# 
   519  0FE9                     	;# 
   520  0FEA                     	;# 
   521  0FEB                     	;# 
   522  0FED                     	;# 
   523  0FEE                     	;# 
   524  0FEF                     	;# 
   525  0000                     	;# 
   526  0001                     	;# 
   527  0002                     	;# 
   528  0003                     	;# 
   529  0004                     	;# 
   530  0005                     	;# 
   531  0006                     	;# 
   532  0007                     	;# 
   533  0008                     	;# 
   534  0009                     	;# 
   535  000A                     	;# 
   536  000B                     	;# 
   537  000C                     	;# 
   538  000E                     	;# 
   539  0011                     	;# 
   540  0012                     	;# 
   541  0013                     	;# 
   542  0015                     	;# 
   543  0016                     	;# 
   544  0016                     	;# 
   545  0017                     	;# 
   546  0018                     	;# 
   547  0019                     	;# 
   548  001A                     	;# 
   549  001B                     	;# 
   550  001C                     	;# 
   551  001E                     	;# 
   552  001F                     	;# 
   553  008C                     	;# 
   554  008E                     	;# 
   555  0091                     	;# 
   556  0092                     	;# 
   557  0093                     	;# 
   558  0095                     	;# 
   559  0096                     	;# 
   560  0097                     	;# 
   561  0098                     	;# 
   562  0099                     	;# 
   563  009A                     	;# 
   564  009B                     	;# 
   565  009B                     	;# 
   566  009C                     	;# 
   567  009D                     	;# 
   568  009E                     	;# 
   569  010C                     	;# 
   570  010E                     	;# 
   571  0111                     	;# 
   572  0112                     	;# 
   573  0113                     	;# 
   574  0114                     	;# 
   575  0115                     	;# 
   576  0116                     	;# 
   577  0117                     	;# 
   578  0118                     	;# 
   579  0119                     	;# 
   580  011A                     	;# 
   581  011B                     	;# 
   582  011D                     	;# 
   583  011E                     	;# 
   584  018C                     	;# 
   585  018E                     	;# 
   586  0191                     	;# 
   587  0191                     	;# 
   588  0192                     	;# 
   589  0193                     	;# 
   590  0193                     	;# 
   591  0193                     	;# 
   592  0194                     	;# 
   593  0195                     	;# 
   594  0196                     	;# 
   595  0199                     	;# 
   596  019A                     	;# 
   597  019B                     	;# 
   598  019B                     	;# 
   599  019B                     	;# 
   600  019B                     	;# 
   601  019C                     	;# 
   602  019C                     	;# 
   603  019D                     	;# 
   604  019E                     	;# 
   605  019F                     	;# 
   606  020C                     	;# 
   607  020E                     	;# 
   608  0211                     	;# 
   609  0211                     	;# 
   610  0212                     	;# 
   611  0212                     	;# 
   612  0213                     	;# 
   613  0213                     	;# 
   614  0214                     	;# 
   615  0214                     	;# 
   616  0215                     	;# 
   617  0215                     	;# 
   618  0215                     	;# 
   619  0215                     	;# 
   620  0216                     	;# 
   621  0216                     	;# 
   622  0217                     	;# 
   623  0217                     	;# 
   624  0291                     	;# 
   625  0291                     	;# 
   626  0292                     	;# 
   627  0293                     	;# 
   628  0294                     	;# 
   629  0295                     	;# 
   630  0295                     	;# 
   631  0296                     	;# 
   632  0298                     	;# 
   633  0298                     	;# 
   634  0299                     	;# 
   635  029A                     	;# 
   636  029B                     	;# 
   637  029C                     	;# 
   638  029D                     	;# 
   639  029E                     	;# 
   640  029E                     	;# 
   641  0311                     	;# 
   642  0311                     	;# 
   643  0312                     	;# 
   644  0313                     	;# 
   645  0318                     	;# 
   646  0318                     	;# 
   647  0319                     	;# 
   648  031A                     	;# 
   649  038C                     	;# 
   650  038E                     	;# 
   651  0391                     	;# 
   652  0392                     	;# 
   653  0393                     	;# 
   654  039A                     	;# 
   655  039C                     	;# 
   656  039D                     	;# 
   657  039E                     	;# 
   658  039F                     	;# 
   659  0415                     	;# 
   660  0416                     	;# 
   661  0417                     	;# 
   662  041C                     	;# 
   663  041D                     	;# 
   664  041E                     	;# 
   665  0FE4                     	;# 
   666  0FE5                     	;# 
   667  0FE6                     	;# 
   668  0FE7                     	;# 
   669  0FE8                     	;# 
   670  0FE9                     	;# 
   671  0FEA                     	;# 
   672  0FEB                     	;# 
   673  0FED                     	;# 
   674  0FEE                     	;# 
   675  0FEF                     	;# 
   676                           
   677                           	psect	idataBANK0
   678  07A8                     __pidataBANK0:	
   679                           
   680                           ;initializer for _dig2
   681  07A8  34CF               	retlw	207
   682  07A9  3403               	retlw	3
   683  07AA  34AE               	retlw	174
   684  07AB  342F               	retlw	47
   685  07AC  3463               	retlw	99
   686  07AD  346D               	retlw	109
   687  07AE  34ED               	retlw	237
   688  07AF  340B               	retlw	11
   689  07B0  34EF               	retlw	239
   690  07B1  346F               	retlw	111
   691  07B2  3400               	retlw	0
   692                           
   693                           ;initializer for _dig1
   694  07B3  34F5               	retlw	245
   695  07B4  3460               	retlw	96
   696  07B5  34B6               	retlw	182
   697  07B6  34F2               	retlw	242
   698  07B7  3463               	retlw	99
   699  07B8  34D3               	retlw	211
   700  07B9  34D7               	retlw	215
   701  07BA  3470               	retlw	112
   702  07BB  34F7               	retlw	247
   703  07BC  34F3               	retlw	243
   704  07BD  3400               	retlw	0
   705  0003                     _STATUSbits	set	3
   706  000B                     _INTCONbits	set	11
   707  0015                     _TMR0	set	21
   708  000E                     _PORTCbits	set	14
   709  000C                     _PORTAbits	set	12
   710  0095                     _OPTION_REGbits	set	149
   711  0099                     _OSCCONbits	set	153
   712  008C                     _TRISAbits	set	140
   713  008E                     _TRISCbits	set	142
   714  010C                     _LATAbits	set	268
   715  010E                     _LATCbits	set	270
   716  0191                     _EEADR	set	401
   717  0196                     _EECON2	set	406
   718  0193                     _EEDATA	set	403
   719  0195                     _EECON1	set	405
   720  0195                     _EECON1bits	set	405
   721                           
   722                           ; #config settings
   723  0000                     
   724                           	psect	cinit
   725  003A                     start_initialization:	
   726  003A                     __initialization:	
   727                           
   728                           ; Initialize objects allocated to BANK0
   729  003A  30A8               	movlw	low __pidataBANK0
   730  003B  0084               	movwf	4
   731  003C  3087               	movlw	(high __pidataBANK0)| (0+128)
   732  003D  0085               	movwf	5
   733  003E  303A               	movlw	low __pdataBANK0
   734  003F  0086               	movwf	6
   735  0040  3000               	movlw	high __pdataBANK0
   736  0041  0087               	movwf	7
   737  0042  3016               	movlw	22
   738  0043  3187  27F7  3180   	fcall	init_ram
   739                           
   740                           ; Clear objects allocated to BANK0
   741  0046  3020               	movlw	low __pbssBANK0
   742  0047  0084               	movwf	4
   743  0048  3000               	movlw	high __pbssBANK0
   744  0049  0085               	movwf	5
   745  004A  301A               	movlw	26
   746  004B  318F  27FA  3180   	fcall	clear_ram0
   747  004E                     end_of_initialization:	
   748                           ;End of C runtime variable initialization code
   749                           
   750  004E                     __end_of__initialization:	
   751  004E  107E               	bcf	int$flags,0	;clear compiler interrupt flag (level 1)
   752  004F  0020               	movlb	0
   753  0050  3180  2852         	ljmp	_main	;jump to C main() function
   754                           
   755                           	psect	bssBANK0
   756  0020                     __pbssBANK0:	
   757  0020                     _k:	
   758  0020                     	ds	4
   759  0024                     myISR@f:	
   760  0024                     	ds	2
   761  0026                     _proceso:	
   762  0026                     	ds	2
   763  0028                     _last_segundos_temp:	
   764  0028                     	ds	2
   765  002A                     _last_minutos_temp:	
   766  002A                     	ds	2
   767  002C                     _segundos_temp:	
   768  002C                     	ds	2
   769  002E                     _minutos_temp:	
   770  002E                     	ds	2
   771  0030                     _segundos_set:	
   772  0030                     	ds	2
   773  0032                     _minutos_set:	
   774  0032                     	ds	2
   775  0034                     input_pulsador_ok@contador:	
   776  0034                     	ds	2
   777  0036                     input_pulsador_bajar@contador:	
   778  0036                     	ds	2
   779  0038                     input_pulsador_subir@contador:	
   780  0038                     	ds	2
   781                           
   782                           	psect	dataBANK0
   783  003A                     __pdataBANK0:	
   784  003A                     _dig2:	
   785  003A                     	ds	11
   786  0045                     _dig1:	
   787  0045                     	ds	11
   788                           
   789                           	psect	inittext
   790  07F7                     init_ram:	
   791  07F7  00FE               	movwf	btemp
   792  07F8                     initloop:	
   793  07F8  0012               	moviw fsr0++
   794  07F9  001E               	movwi fsr1++
   795  07FA  0BFE               	decfsz	btemp,f
   796  07FB  2FF8               	goto	initloop
   797  07FC  3400               	retlw	0
   798                           
   799                           	psect	clrtext
   800  0FFA                     clear_ram0:	
   801                           ;	Called with FSR0 containing the base address, and
   802                           ;	WREG with the size to clear
   803                           
   804  0FFA  0064               	clrwdt	;clear the watchdog before getting into this loop
   805  0FFB                     clrloop0:	
   806  0FFB  0180               	clrf	0	;clear RAM location pointed to by FSR
   807  0FFC  3101               	addfsr 0,1
   808  0FFD  0B89               	decfsz	9,f	;Have we reached the end of clearing yet?
   809  0FFE  2FFB               	goto	clrloop0	;have we reached the end yet?
   810  0FFF  3400               	retlw	0	;all done for this memory range, return
   811                           
   812                           	psect	cstackCOMMON
   813  0070                     __pcstackCOMMON:	
   814  0070                     ?_oscillator_config:	
   815  0070                     ?_timer_0_config:	
   816                           ; 1 bytes @ 0x0
   817                           
   818  0070                     ?_update_eeprom:	
   819                           ; 1 bytes @ 0x0
   820                           
   821  0070                     ?_display_init:	
   822                           ; 1 bytes @ 0x0
   823                           
   824  0070                     ?_timer_0_disable:	
   825                           ; 1 bytes @ 0x0
   826                           
   827  0070                     ?_timer_0_enable:	
   828                           ; 1 bytes @ 0x0
   829                           
   830  0070                     ?_eeprom_read:	
   831                           ; 1 bytes @ 0x0
   832                           
   833  0070                     ?_max7219_config:	
   834                           ; 1 bytes @ 0x0
   835                           
   836  0070                     ?_input_config:	
   837                           ; 1 bytes @ 0x0
   838                           
   839  0070                     ?_output_config:	
   840                           ; 1 bytes @ 0x0
   841                           
   842  0070                     ?_main:	
   843                           ; 1 bytes @ 0x0
   844                           
   845  0070                     ?_myISR:	
   846                           ; 1 bytes @ 0x0
   847                           
   848  0070                     ??_myISR:	
   849                           ; 1 bytes @ 0x0
   850                           
   851                           
   852                           ; 1 bytes @ 0x0
   853  0070                     	ds	1
   854  0071                     ??_oscillator_config:	
   855  0071                     ??_timer_0_config:	
   856                           ; 1 bytes @ 0x1
   857                           
   858  0071                     ??_timer_0_disable:	
   859                           ; 1 bytes @ 0x1
   860                           
   861  0071                     ?_eeprom_write:	
   862                           ; 1 bytes @ 0x1
   863                           
   864  0071                     ??_timer_0_enable:	
   865                           ; 1 bytes @ 0x1
   866                           
   867  0071                     ??_eeprom_read:	
   868                           ; 1 bytes @ 0x1
   869                           
   870  0071                     ?___max7219_write:	
   871                           ; 1 bytes @ 0x1
   872                           
   873  0071                     ??_input_config:	
   874                           ; 1 bytes @ 0x1
   875                           
   876  0071                     ??_output_config:	
   877                           ; 1 bytes @ 0x1
   878                           
   879  0071                     ?_output_relay:	
   880                           ; 1 bytes @ 0x1
   881                           
   882  0071                     ?_input_pulsador_subir:	
   883                           ; 1 bytes @ 0x1
   884                           
   885  0071                     ?_input_pulsador_bajar:	
   886                           ; 2 bytes @ 0x1
   887                           
   888  0071                     ?_input_pulsador_ok:	
   889                           ; 2 bytes @ 0x1
   890                           
   891  0071                     ?___awdiv:	
   892                           ; 2 bytes @ 0x1
   893                           
   894  0071                     ?___awmod:	
   895                           ; 2 bytes @ 0x1
   896                           
   897  0071                     ?___lwmod:	
   898                           ; 2 bytes @ 0x1
   899                           
   900  0071                     eeprom_write@value:	
   901                           ; 2 bytes @ 0x1
   902                           
   903  0071                     ___max7219_write@address:	
   904                           ; 1 bytes @ 0x1
   905                           
   906  0071                     output_relay@d:	
   907                           ; 2 bytes @ 0x1
   908                           
   909  0071                     ___awdiv@divisor:	
   910                           ; 2 bytes @ 0x1
   911                           
   912  0071                     ___awmod@divisor:	
   913                           ; 2 bytes @ 0x1
   914                           
   915  0071                     ___lwmod@divisor:	
   916                           ; 2 bytes @ 0x1
   917                           
   918                           
   919                           ; 2 bytes @ 0x1
   920  0071                     	ds	1
   921  0072                     ??_eeprom_write:	
   922                           
   923                           ; 1 bytes @ 0x2
   924  0072                     	ds	1
   925  0073                     ??_input_pulsador_subir:	
   926  0073                     ??_input_pulsador_bajar:	
   927                           ; 1 bytes @ 0x3
   928                           
   929  0073                     ??_input_pulsador_ok:	
   930                           ; 1 bytes @ 0x3
   931                           
   932  0073                     ??_output_relay:	
   933                           ; 1 bytes @ 0x3
   934                           
   935  0073                     ___max7219_write@data:	
   936                           ; 1 bytes @ 0x3
   937                           
   938  0073                     ___awdiv@dividend:	
   939                           ; 2 bytes @ 0x3
   940                           
   941  0073                     ___awmod@dividend:	
   942                           ; 2 bytes @ 0x3
   943                           
   944  0073                     ___lwmod@dividend:	
   945                           ; 2 bytes @ 0x3
   946                           
   947                           
   948                           ; 2 bytes @ 0x3
   949  0073                     	ds	1
   950  0074                     eeprom_read@addr:	
   951  0074                     eeprom_write@addr:	
   952                           ; 1 bytes @ 0x4
   953                           
   954                           
   955                           ; 1 bytes @ 0x4
   956  0074                     	ds	1
   957  0075                     ??___max7219_write:	
   958  0075                     ??___awdiv:	
   959                           ; 1 bytes @ 0x5
   960                           
   961  0075                     ??___awmod:	
   962                           ; 1 bytes @ 0x5
   963                           
   964  0075                     ??___lwmod:	
   965                           ; 1 bytes @ 0x5
   966                           
   967                           
   968                           ; 1 bytes @ 0x5
   969  0075                     	ds	1
   970  0076                     ___awdiv@counter:	
   971  0076                     ___awmod@counter:	
   972                           ; 1 bytes @ 0x6
   973                           
   974  0076                     ___lwmod@counter:	
   975                           ; 1 bytes @ 0x6
   976                           
   977                           
   978                           ; 1 bytes @ 0x6
   979  0076                     	ds	1
   980  0077                     ?___lwdiv:	
   981  0077                     ___awdiv@sign:	
   982                           ; 2 bytes @ 0x7
   983                           
   984  0077                     ___awmod@sign:	
   985                           ; 1 bytes @ 0x7
   986                           
   987  0077                     ___lwdiv@divisor:	
   988                           ; 1 bytes @ 0x7
   989                           
   990                           
   991                           ; 2 bytes @ 0x7
   992  0077                     	ds	1
   993  0078                     ___awdiv@quotient:	
   994                           
   995                           ; 2 bytes @ 0x8
   996  0078                     	ds	1
   997  0079                     ___max7219_write@dataSend:	
   998  0079                     ___lwdiv@dividend:	
   999                           ; 2 bytes @ 0x9
  1000                           
  1001                           
  1002                           ; 2 bytes @ 0x9
  1003  0079                     	ds	2
  1004  007B                     ??___lwdiv:	
  1005  007B                     ___max7219_write@i:	
  1006                           ; 1 bytes @ 0xB
  1007                           
  1008                           
  1009                           ; 2 bytes @ 0xB
  1010  007B                     	ds	2
  1011  007D                     ??_max7219_config:	
  1012  007D                     ??_max7219_brillo:	
  1013                           ; 1 bytes @ 0xD
  1014                           
  1015                           
  1016                           	psect	cstackBANK0
  1017  0050                     __pcstackBANK0:	
  1018                           ; 1 bytes @ 0xD
  1019                           
  1020  0050                     ?_max7219_brillo:	
  1021  0050                     max7219_brillo@data:	
  1022                           ; 1 bytes @ 0x0
  1023                           
  1024  0050                     ___lwdiv@quotient:	
  1025                           ; 2 bytes @ 0x0
  1026                           
  1027                           
  1028                           ; 2 bytes @ 0x0
  1029  0050                     	ds	2
  1030  0052                     ___lwdiv@counter:	
  1031                           
  1032                           ; 1 bytes @ 0x2
  1033  0052                     	ds	1
  1034  0053                     ?_max7219_writeChar:	
  1035  0053                     max7219_writeChar@pos:	
  1036                           ; 1 bytes @ 0x3
  1037                           
  1038                           
  1039                           ; 2 bytes @ 0x3
  1040  0053                     	ds	2
  1041  0055                     max7219_writeChar@data:	
  1042                           
  1043                           ; 2 bytes @ 0x5
  1044  0055                     	ds	2
  1045  0057                     ??_max7219_writeChar:	
  1046                           
  1047                           ; 1 bytes @ 0x7
  1048  0057                     	ds	2
  1049  0059                     ??_update_eeprom:	
  1050  0059                     ??_display_init:	
  1051                           ; 1 bytes @ 0x9
  1052                           
  1053                           
  1054                           ; 1 bytes @ 0x9
  1055  0059                     	ds	1
  1056  005A                     display_init@i:	
  1057                           
  1058                           ; 2 bytes @ 0xA
  1059  005A                     	ds	1
  1060  005B                     _update_eeprom$1085:	
  1061                           
  1062                           ; 2 bytes @ 0xB
  1063  005B                     	ds	1
  1064  005C                     display_init@j:	
  1065                           
  1066                           ; 2 bytes @ 0xC
  1067  005C                     	ds	1
  1068  005D                     _update_eeprom$1084:	
  1069                           
  1070                           ; 2 bytes @ 0xD
  1071  005D                     	ds	2
  1072  005F                     update_eeprom@var1:	
  1073                           
  1074                           ; 2 bytes @ 0xF
  1075  005F                     	ds	2
  1076  0061                     update_eeprom@var2:	
  1077                           
  1078                           ; 2 bytes @ 0x11
  1079  0061                     	ds	2
  1080  0063                     update_eeprom@usos:	
  1081                           
  1082                           ; 2 bytes @ 0x13
  1083  0063                     	ds	2
  1084  0065                     ??_main:	
  1085                           
  1086                           ; 1 bytes @ 0x15
  1087  0065                     	ds	1
  1088                           
  1089                           	psect	maintext
  1090  0052                     __pmaintext:	
  1091 ;;
  1092 ;;Main: autosize = 0, tempsize = 1, incstack = 0, save=0
  1093 ;;
  1094 ;; *************** function _main *****************
  1095 ;; Defined at:
  1096 ;;		line 30 in file "main.c"
  1097 ;; Parameters:    Size  Location     Type
  1098 ;;		None
  1099 ;; Auto vars:     Size  Location     Type
  1100 ;;		None
  1101 ;; Return value:  Size  Location     Type
  1102 ;;                  1    wreg      void 
  1103 ;; Registers used:
  1104 ;;		wreg, fsr1l, fsr1h, status,2, status,0, pclath, cstack
  1105 ;; Tracked objects:
  1106 ;;		On entry : B1F/0
  1107 ;;		On exit  : 0/0
  1108 ;;		Unchanged: 0/0
  1109 ;; Data sizes:     COMMON   BANK0   BANK1   BANK2
  1110 ;;      Params:         0       0       0       0
  1111 ;;      Locals:         0       0       0       0
  1112 ;;      Temps:          0       1       0       0
  1113 ;;      Totals:         0       1       0       0
  1114 ;;Total ram usage:        1 bytes
  1115 ;; Hardware stack levels required when called:    4
  1116 ;; This function calls:
  1117 ;;		___awdiv
  1118 ;;		___awmod
  1119 ;;		_display_init
  1120 ;;		_eeprom_write
  1121 ;;		_input_config
  1122 ;;		_input_pulsador_bajar
  1123 ;;		_input_pulsador_ok
  1124 ;;		_input_pulsador_subir
  1125 ;;		_max7219_brillo
  1126 ;;		_max7219_config
  1127 ;;		_max7219_writeChar
  1128 ;;		_oscillator_config
  1129 ;;		_output_config
  1130 ;;		_output_relay
  1131 ;;		_timer_0_config
  1132 ;;		_timer_0_disable
  1133 ;;		_timer_0_enable
  1134 ;;		_update_eeprom
  1135 ;; This function is called by:
  1136 ;;		Startup code after reset
  1137 ;; This function uses a non-reentrant model
  1138 ;;
  1139                           
  1140                           
  1141                           ;psect for function _main
  1142  0052                     _main:	
  1143  0052                     l1829:	
  1144                           ;incstack = 0
  1145                           ; Regs used in _main: [wreg+fsr1l+fsr1h+status,2+status,0+pclath+cstack]
  1146                           
  1147                           
  1148                           ;main.c: 32:     oscillator_config();
  1149  0052  3187  27E0  3180   	fcall	_oscillator_config
  1150  0055                     l1831:	
  1151                           
  1152                           ;main.c: 33:     input_config();
  1153  0055  318F  27E8  3180   	fcall	_input_config
  1154  0058                     l1833:	
  1155                           
  1156                           ;main.c: 34:     output_config();
  1157  0058  3187  27E9  3180   	fcall	_output_config
  1158                           
  1159                           ;main.c: 35:     timer_0_config();
  1160  005B  3187  27D3  3180   	fcall	_timer_0_config
  1161                           
  1162                           ;main.c: 36:     max7219_config();
  1163  005E  3185  25F3  3180   	fcall	_max7219_config
  1164                           
  1165                           ;main.c: 37:     max7219_brillo(8);
  1166  0061  3008               	movlw	8
  1167  0062  0020               	movlb	0	; select bank0
  1168  0063  00D0               	movwf	max7219_brillo@data
  1169  0064  3000               	movlw	0
  1170  0065  00D1               	movwf	max7219_brillo@data+1
  1171  0066  3187  278D  3180   	fcall	_max7219_brillo
  1172  0069                     l1835:	
  1173                           
  1174                           ;main.c: 38:     update_eeprom();
  1175  0069  3182  22A4  3180   	fcall	_update_eeprom
  1176  006C                     l1837:	
  1177                           
  1178                           ;main.c: 39:     display_init();
  1179  006C  3183  23F8  3180   	fcall	_display_init
  1180  006F                     l119:	
  1181                           ;main.c: 41:     while (1) {
  1182                           
  1183                           
  1184                           ;main.c: 43:         if (input_pulsador_subir()) {
  1185  006F  3187  271B  3180   	fcall	_input_pulsador_subir
  1186  0072  0871               	movf	?_input_pulsador_subir,w
  1187  0073  0472               	iorwf	?_input_pulsador_subir+1,w
  1188  0074  1903               	btfsc	3,2
  1189  0075  2877               	goto	u1451
  1190  0076  2878               	goto	u1450
  1191  0077                     u1451:	
  1192  0077  28B5               	goto	l1847
  1193  0078                     u1450:	
  1194  0078                     l1839:	
  1195                           
  1196                           ;main.c: 44:             if (++minutos_set == 60) {
  1197  0078  3001               	movlw	1
  1198  0079  0020               	movlb	0	; select bank0
  1199  007A  07B2               	addwf	_minutos_set,f
  1200  007B  3000               	movlw	0
  1201  007C  3DB3               	addwfc	_minutos_set+1,f
  1202  007D  303C               	movlw	60
  1203  007E  0632               	xorwf	_minutos_set,w
  1204  007F  0433               	iorwf	_minutos_set+1,w
  1205  0080  1D03               	btfss	3,2
  1206  0081  2883               	goto	u1461
  1207  0082  2884               	goto	u1460
  1208  0083                     u1461:	
  1209  0083  2886               	goto	l1843
  1210  0084                     u1460:	
  1211  0084                     l1841:	
  1212                           
  1213                           ;main.c: 45:                 minutos_set = 0;
  1214  0084  01B2               	clrf	_minutos_set
  1215  0085  01B3               	clrf	_minutos_set+1
  1216  0086                     l1843:	
  1217                           
  1218                           ;main.c: 47:             max7219_writeChar(1, minutos_set / 10);
  1219  0086  3001               	movlw	1
  1220  0087  00D3               	movwf	max7219_writeChar@pos
  1221  0088  3000               	movlw	0
  1222  0089  00D4               	movwf	max7219_writeChar@pos+1
  1223  008A  300A               	movlw	10
  1224  008B  00F1               	movwf	___awdiv@divisor
  1225  008C  3000               	movlw	0
  1226  008D  00F2               	movwf	___awdiv@divisor+1
  1227  008E  0833               	movf	_minutos_set+1,w
  1228  008F  00F4               	movwf	___awdiv@dividend+1
  1229  0090  0832               	movf	_minutos_set,w
  1230  0091  00F3               	movwf	___awdiv@dividend
  1231  0092  3184  24E7  3180   	fcall	___awdiv
  1232  0095  0872               	movf	?___awdiv+1,w
  1233  0096  0020               	movlb	0	; select bank0
  1234  0097  00D6               	movwf	max7219_writeChar@data+1
  1235  0098  0871               	movf	?___awdiv,w
  1236  0099  00D5               	movwf	max7219_writeChar@data
  1237  009A  3185  2546  3180   	fcall	_max7219_writeChar
  1238  009D                     l1845:	
  1239                           
  1240                           ;main.c: 48:             max7219_writeChar(5, minutos_set % 10);
  1241  009D  3005               	movlw	5
  1242  009E  0020               	movlb	0	; select bank0
  1243  009F  00D3               	movwf	max7219_writeChar@pos
  1244  00A0  3000               	movlw	0
  1245  00A1  00D4               	movwf	max7219_writeChar@pos+1
  1246  00A2  300A               	movlw	10
  1247  00A3  00F1               	movwf	___awmod@divisor
  1248  00A4  3000               	movlw	0
  1249  00A5  00F2               	movwf	___awmod@divisor+1
  1250  00A6  0833               	movf	_minutos_set+1,w
  1251  00A7  00F4               	movwf	___awmod@dividend+1
  1252  00A8  0832               	movf	_minutos_set,w
  1253  00A9  00F3               	movwf	___awmod@dividend
  1254  00AA  3185  25A0  3180   	fcall	___awmod
  1255  00AD  0872               	movf	?___awmod+1,w
  1256  00AE  0020               	movlb	0	; select bank0
  1257  00AF  00D6               	movwf	max7219_writeChar@data+1
  1258  00B0  0871               	movf	?___awmod,w
  1259  00B1  00D5               	movwf	max7219_writeChar@data
  1260  00B2  3185  2546  3180   	fcall	_max7219_writeChar
  1261  00B5                     l1847:	
  1262                           
  1263                           ;main.c: 51:         if (input_pulsador_bajar()) {
  1264  00B5  3187  2767  3180   	fcall	_input_pulsador_bajar
  1265  00B8  0871               	movf	?_input_pulsador_bajar,w
  1266  00B9  0472               	iorwf	?_input_pulsador_bajar+1,w
  1267  00BA  1903               	btfsc	3,2
  1268  00BB  28BD               	goto	u1471
  1269  00BC  28BE               	goto	u1470
  1270  00BD                     u1471:	
  1271  00BD  28FB               	goto	l1857
  1272  00BE                     u1470:	
  1273  00BE                     l1849:	
  1274                           
  1275                           ;main.c: 52:             if (++segundos_set == 60) {
  1276  00BE  3001               	movlw	1
  1277  00BF  0020               	movlb	0	; select bank0
  1278  00C0  07B0               	addwf	_segundos_set,f
  1279  00C1  3000               	movlw	0
  1280  00C2  3DB1               	addwfc	_segundos_set+1,f
  1281  00C3  303C               	movlw	60
  1282  00C4  0630               	xorwf	_segundos_set,w
  1283  00C5  0431               	iorwf	_segundos_set+1,w
  1284  00C6  1D03               	btfss	3,2
  1285  00C7  28C9               	goto	u1481
  1286  00C8  28CA               	goto	u1480
  1287  00C9                     u1481:	
  1288  00C9  28CC               	goto	l1853
  1289  00CA                     u1480:	
  1290  00CA                     l1851:	
  1291                           
  1292                           ;main.c: 53:                 segundos_set = 0;
  1293  00CA  01B0               	clrf	_segundos_set
  1294  00CB  01B1               	clrf	_segundos_set+1
  1295  00CC                     l1853:	
  1296                           
  1297                           ;main.c: 55:             max7219_writeChar(7, segundos_set / 10);
  1298  00CC  3007               	movlw	7
  1299  00CD  00D3               	movwf	max7219_writeChar@pos
  1300  00CE  3000               	movlw	0
  1301  00CF  00D4               	movwf	max7219_writeChar@pos+1
  1302  00D0  300A               	movlw	10
  1303  00D1  00F1               	movwf	___awdiv@divisor
  1304  00D2  3000               	movlw	0
  1305  00D3  00F2               	movwf	___awdiv@divisor+1
  1306  00D4  0831               	movf	_segundos_set+1,w
  1307  00D5  00F4               	movwf	___awdiv@dividend+1
  1308  00D6  0830               	movf	_segundos_set,w
  1309  00D7  00F3               	movwf	___awdiv@dividend
  1310  00D8  3184  24E7  3180   	fcall	___awdiv
  1311  00DB  0872               	movf	?___awdiv+1,w
  1312  00DC  0020               	movlb	0	; select bank0
  1313  00DD  00D6               	movwf	max7219_writeChar@data+1
  1314  00DE  0871               	movf	?___awdiv,w
  1315  00DF  00D5               	movwf	max7219_writeChar@data
  1316  00E0  3185  2546  3180   	fcall	_max7219_writeChar
  1317  00E3                     l1855:	
  1318                           
  1319                           ;main.c: 56:             max7219_writeChar(3, segundos_set % 10);
  1320  00E3  3003               	movlw	3
  1321  00E4  0020               	movlb	0	; select bank0
  1322  00E5  00D3               	movwf	max7219_writeChar@pos
  1323  00E6  3000               	movlw	0
  1324  00E7  00D4               	movwf	max7219_writeChar@pos+1
  1325  00E8  300A               	movlw	10
  1326  00E9  00F1               	movwf	___awmod@divisor
  1327  00EA  3000               	movlw	0
  1328  00EB  00F2               	movwf	___awmod@divisor+1
  1329  00EC  0831               	movf	_segundos_set+1,w
  1330  00ED  00F4               	movwf	___awmod@dividend+1
  1331  00EE  0830               	movf	_segundos_set,w
  1332  00EF  00F3               	movwf	___awmod@dividend
  1333  00F0  3185  25A0  3180   	fcall	___awmod
  1334  00F3  0872               	movf	?___awmod+1,w
  1335  00F4  0020               	movlb	0	; select bank0
  1336  00F5  00D6               	movwf	max7219_writeChar@data+1
  1337  00F6  0871               	movf	?___awmod,w
  1338  00F7  00D5               	movwf	max7219_writeChar@data
  1339  00F8  3185  2546  3180   	fcall	_max7219_writeChar
  1340  00FB                     l1857:	
  1341                           
  1342                           ;main.c: 59:         if (proceso == 1) {
  1343  00FB  0020               	movlb	0	; select bank0
  1344  00FC  0326               	decf	_proceso,w
  1345  00FD  0427               	iorwf	_proceso+1,w
  1346  00FE  1D03               	btfss	3,2
  1347  00FF  2901               	goto	u1491
  1348  0100  2902               	goto	u1490
  1349  0101                     u1491:	
  1350  0101  2A2D               	goto	l1907
  1351  0102                     u1490:	
  1352  0102                     l1859:	
  1353                           
  1354                           ;main.c: 60:             if (last_minutos_temp != minutos_temp) {
  1355  0102  082F               	movf	_minutos_temp+1,w
  1356  0103  062B               	xorwf	_last_minutos_temp+1,w
  1357  0104  1D03               	skipz
  1358  0105  2908               	goto	u1505
  1359  0106  082E               	movf	_minutos_temp,w
  1360  0107  062A               	xorwf	_last_minutos_temp,w
  1361  0108                     u1505:	
  1362  0108  1903               	skipnz
  1363  0109  290B               	goto	u1501
  1364  010A  290C               	goto	u1500
  1365  010B                     u1501:	
  1366  010B  293F               	goto	l125
  1367  010C                     u1500:	
  1368  010C                     l1861:	
  1369                           
  1370                           ;main.c: 61:                 last_minutos_temp = minutos_temp;
  1371  010C  082F               	movf	_minutos_temp+1,w
  1372  010D  00AB               	movwf	_last_minutos_temp+1
  1373  010E  082E               	movf	_minutos_temp,w
  1374  010F  00AA               	movwf	_last_minutos_temp
  1375  0110                     l1863:	
  1376                           
  1377                           ;main.c: 62:                 max7219_writeChar(8, minutos_temp / 10);
  1378  0110  3008               	movlw	8
  1379  0111  00D3               	movwf	max7219_writeChar@pos
  1380  0112  3000               	movlw	0
  1381  0113  00D4               	movwf	max7219_writeChar@pos+1
  1382  0114  300A               	movlw	10
  1383  0115  00F1               	movwf	___awdiv@divisor
  1384  0116  3000               	movlw	0
  1385  0117  00F2               	movwf	___awdiv@divisor+1
  1386  0118  082F               	movf	_minutos_temp+1,w
  1387  0119  00F4               	movwf	___awdiv@dividend+1
  1388  011A  082E               	movf	_minutos_temp,w
  1389  011B  00F3               	movwf	___awdiv@dividend
  1390  011C  3184  24E7  3180   	fcall	___awdiv
  1391  011F  0872               	movf	?___awdiv+1,w
  1392  0120  0020               	movlb	0	; select bank0
  1393  0121  00D6               	movwf	max7219_writeChar@data+1
  1394  0122  0871               	movf	?___awdiv,w
  1395  0123  00D5               	movwf	max7219_writeChar@data
  1396  0124  3185  2546  3180   	fcall	_max7219_writeChar
  1397  0127                     l1865:	
  1398                           
  1399                           ;main.c: 63:                 max7219_writeChar(6, minutos_temp % 10);
  1400  0127  3006               	movlw	6
  1401  0128  0020               	movlb	0	; select bank0
  1402  0129  00D3               	movwf	max7219_writeChar@pos
  1403  012A  3000               	movlw	0
  1404  012B  00D4               	movwf	max7219_writeChar@pos+1
  1405  012C  300A               	movlw	10
  1406  012D  00F1               	movwf	___awmod@divisor
  1407  012E  3000               	movlw	0
  1408  012F  00F2               	movwf	___awmod@divisor+1
  1409  0130  082F               	movf	_minutos_temp+1,w
  1410  0131  00F4               	movwf	___awmod@dividend+1
  1411  0132  082E               	movf	_minutos_temp,w
  1412  0133  00F3               	movwf	___awmod@dividend
  1413  0134  3185  25A0  3180   	fcall	___awmod
  1414  0137  0872               	movf	?___awmod+1,w
  1415  0138  0020               	movlb	0	; select bank0
  1416  0139  00D6               	movwf	max7219_writeChar@data+1
  1417  013A  0871               	movf	?___awmod,w
  1418  013B  00D5               	movwf	max7219_writeChar@data
  1419  013C  3185  2546  3180   	fcall	_max7219_writeChar
  1420  013F                     l125:	
  1421                           ;main.c: 65:             }
  1422                           
  1423                           
  1424                           ;main.c: 66:             if (last_segundos_temp != segundos_temp) {
  1425  013F  0020               	movlb	0	; select bank0
  1426  0140  082D               	movf	_segundos_temp+1,w
  1427  0141  0629               	xorwf	_last_segundos_temp+1,w
  1428  0142  1D03               	skipz
  1429  0143  2946               	goto	u1515
  1430  0144  082C               	movf	_segundos_temp,w
  1431  0145  0628               	xorwf	_last_segundos_temp,w
  1432  0146                     u1515:	
  1433  0146  1903               	skipnz
  1434  0147  2949               	goto	u1511
  1435  0148  294A               	goto	u1510
  1436  0149                     u1511:	
  1437  0149  297D               	goto	l126
  1438  014A                     u1510:	
  1439  014A                     l1867:	
  1440                           
  1441                           ;main.c: 67:                 last_segundos_temp = segundos_temp;
  1442  014A  082D               	movf	_segundos_temp+1,w
  1443  014B  00A9               	movwf	_last_segundos_temp+1
  1444  014C  082C               	movf	_segundos_temp,w
  1445  014D  00A8               	movwf	_last_segundos_temp
  1446  014E                     l1869:	
  1447                           
  1448                           ;main.c: 68:                 max7219_writeChar(2, segundos_temp / 10);
  1449  014E  3002               	movlw	2
  1450  014F  00D3               	movwf	max7219_writeChar@pos
  1451  0150  3000               	movlw	0
  1452  0151  00D4               	movwf	max7219_writeChar@pos+1
  1453  0152  300A               	movlw	10
  1454  0153  00F1               	movwf	___awdiv@divisor
  1455  0154  3000               	movlw	0
  1456  0155  00F2               	movwf	___awdiv@divisor+1
  1457  0156  082D               	movf	_segundos_temp+1,w
  1458  0157  00F4               	movwf	___awdiv@dividend+1
  1459  0158  082C               	movf	_segundos_temp,w
  1460  0159  00F3               	movwf	___awdiv@dividend
  1461  015A  3184  24E7  3180   	fcall	___awdiv
  1462  015D  0872               	movf	?___awdiv+1,w
  1463  015E  0020               	movlb	0	; select bank0
  1464  015F  00D6               	movwf	max7219_writeChar@data+1
  1465  0160  0871               	movf	?___awdiv,w
  1466  0161  00D5               	movwf	max7219_writeChar@data
  1467  0162  3185  2546  3180   	fcall	_max7219_writeChar
  1468  0165                     l1871:	
  1469                           
  1470                           ;main.c: 69:                 max7219_writeChar(4, segundos_temp % 10);
  1471  0165  3004               	movlw	4
  1472  0166  0020               	movlb	0	; select bank0
  1473  0167  00D3               	movwf	max7219_writeChar@pos
  1474  0168  3000               	movlw	0
  1475  0169  00D4               	movwf	max7219_writeChar@pos+1
  1476  016A  300A               	movlw	10
  1477  016B  00F1               	movwf	___awmod@divisor
  1478  016C  3000               	movlw	0
  1479  016D  00F2               	movwf	___awmod@divisor+1
  1480  016E  082D               	movf	_segundos_temp+1,w
  1481  016F  00F4               	movwf	___awmod@dividend+1
  1482  0170  082C               	movf	_segundos_temp,w
  1483  0171  00F3               	movwf	___awmod@dividend
  1484  0172  3185  25A0  3180   	fcall	___awmod
  1485  0175  0872               	movf	?___awmod+1,w
  1486  0176  0020               	movlb	0	; select bank0
  1487  0177  00D6               	movwf	max7219_writeChar@data+1
  1488  0178  0871               	movf	?___awmod,w
  1489  0179  00D5               	movwf	max7219_writeChar@data
  1490  017A  3185  2546  3180   	fcall	_max7219_writeChar
  1491  017D                     l126:	
  1492                           ;main.c: 70:             }
  1493                           
  1494                           
  1495                           ;main.c: 72:             if (minutos_set == minutos_temp && segundos_set == segundos_tem
      +                          p) {
  1496  017D  0020               	movlb	0	; select bank0
  1497  017E  082F               	movf	_minutos_temp+1,w
  1498  017F  0633               	xorwf	_minutos_set+1,w
  1499  0180  1D03               	skipz
  1500  0181  2984               	goto	u1525
  1501  0182  082E               	movf	_minutos_temp,w
  1502  0183  0632               	xorwf	_minutos_set,w
  1503  0184                     u1525:	
  1504  0184  1D03               	skipz
  1505  0185  2987               	goto	u1521
  1506  0186  2988               	goto	u1520
  1507  0187                     u1521:	
  1508  0187  286F               	goto	l119
  1509  0188                     u1520:	
  1510  0188                     l1873:	
  1511  0188  082D               	movf	_segundos_temp+1,w
  1512  0189  0631               	xorwf	_segundos_set+1,w
  1513  018A  1D03               	skipz
  1514  018B  298E               	goto	u1535
  1515  018C  082C               	movf	_segundos_temp,w
  1516  018D  0630               	xorwf	_segundos_set,w
  1517  018E                     u1535:	
  1518  018E  1D03               	skipz
  1519  018F  2991               	goto	u1531
  1520  0190  2992               	goto	u1530
  1521  0191                     u1531:	
  1522  0191  286F               	goto	l119
  1523  0192                     u1530:	
  1524  0192                     l1875:	
  1525                           
  1526                           ;main.c: 73:                 minutos_temp = 0;
  1527  0192  01AE               	clrf	_minutos_temp
  1528  0193  01AF               	clrf	_minutos_temp+1
  1529                           
  1530                           ;main.c: 74:                 segundos_temp = 0;
  1531  0194  01AC               	clrf	_segundos_temp
  1532  0195  01AD               	clrf	_segundos_temp+1
  1533  0196                     l1877:	
  1534                           
  1535                           ;main.c: 75:                 timer_0_disable();
  1536  0196  318F  27EE  3180   	fcall	_timer_0_disable
  1537  0199                     l1879:	
  1538                           
  1539                           ;main.c: 76:                 output_relay(1);
  1540  0199  3001               	movlw	1
  1541  019A  00F1               	movwf	output_relay@d
  1542  019B  3000               	movlw	0
  1543  019C  00F2               	movwf	output_relay@d+1
  1544  019D  3187  27F0  3180   	fcall	_output_relay
  1545  01A0                     l1881:	
  1546                           
  1547                           ;main.c: 77:                 for (k = 0; k < 4000000; k++);
  1548  01A0  3000               	movlw	0
  1549  01A1  0020               	movlb	0	; select bank0
  1550  01A2  00A3               	movwf	_k+3
  1551  01A3  3000               	movlw	0
  1552  01A4  00A2               	movwf	_k+2
  1553  01A5  3000               	movlw	0
  1554  01A6  00A1               	movwf	_k+1
  1555  01A7  3000               	movlw	0
  1556  01A8  00A0               	movwf	_k
  1557  01A9                     l1883:	
  1558  01A9  1BA3               	btfsc	_k+3,7
  1559  01AA  29B5               	goto	u1541
  1560  01AB  0823               	movf	_k+3,w
  1561  01AC  1D03               	btfss	3,2
  1562  01AD  29B6               	goto	u1540
  1563  01AE  3009               	movlw	9
  1564  01AF  0221               	subwf	_k+1,w
  1565  01B0  303D               	movlw	61
  1566  01B1  3B22               	subwfb	_k+2,w
  1567  01B2  1C03               	btfss	3,0
  1568  01B3  29B5               	goto	u1541
  1569  01B4  29B6               	goto	u1540
  1570  01B5                     u1541:	
  1571  01B5  29B7               	goto	l1887
  1572  01B6                     u1540:	
  1573  01B6  29C0               	goto	l1891
  1574  01B7                     l1887:	
  1575  01B7  3001               	movlw	1
  1576  01B8  07A0               	addwf	_k,f
  1577  01B9  3000               	movlw	0
  1578  01BA  3DA1               	addwfc	_k+1,f
  1579  01BB  3000               	movlw	0
  1580  01BC  3DA2               	addwfc	_k+2,f
  1581  01BD  3000               	movlw	0
  1582  01BE  3DA3               	addwfc	_k+3,f
  1583  01BF  29A9               	goto	l1883
  1584  01C0                     l1891:	
  1585                           
  1586                           ;main.c: 78:                 output_relay(0);
  1587  01C0  3000               	movlw	0
  1588  01C1  00F1               	movwf	output_relay@d
  1589  01C2  00F2               	movwf	output_relay@d+1
  1590  01C3  3187  27F0  3180   	fcall	_output_relay
  1591  01C6                     l1893:	
  1592                           
  1593                           ;main.c: 79:                 proceso = 0;
  1594  01C6  0020               	movlb	0	; select bank0
  1595  01C7  01A6               	clrf	_proceso
  1596  01C8  01A7               	clrf	_proceso+1
  1597  01C9                     l1895:	
  1598                           
  1599                           ;main.c: 80:                 minutos_temp = 0;
  1600  01C9  01AE               	clrf	_minutos_temp
  1601  01CA  01AF               	clrf	_minutos_temp+1
  1602  01CB                     l1897:	
  1603                           
  1604                           ;main.c: 81:                 segundos_temp = 0;
  1605  01CB  01AC               	clrf	_segundos_temp
  1606  01CC  01AD               	clrf	_segundos_temp+1
  1607  01CD                     l1899:	
  1608                           
  1609                           ;main.c: 82:                 max7219_writeChar(8, minutos_temp / 10);
  1610  01CD  3008               	movlw	8
  1611  01CE  00D3               	movwf	max7219_writeChar@pos
  1612  01CF  3000               	movlw	0
  1613  01D0  00D4               	movwf	max7219_writeChar@pos+1
  1614  01D1  300A               	movlw	10
  1615  01D2  00F1               	movwf	___awdiv@divisor
  1616  01D3  3000               	movlw	0
  1617  01D4  00F2               	movwf	___awdiv@divisor+1
  1618  01D5  082F               	movf	_minutos_temp+1,w
  1619  01D6  00F4               	movwf	___awdiv@dividend+1
  1620  01D7  082E               	movf	_minutos_temp,w
  1621  01D8  00F3               	movwf	___awdiv@dividend
  1622  01D9  3184  24E7  3180   	fcall	___awdiv
  1623  01DC  0872               	movf	?___awdiv+1,w
  1624  01DD  0020               	movlb	0	; select bank0
  1625  01DE  00D6               	movwf	max7219_writeChar@data+1
  1626  01DF  0871               	movf	?___awdiv,w
  1627  01E0  00D5               	movwf	max7219_writeChar@data
  1628  01E1  3185  2546  3180   	fcall	_max7219_writeChar
  1629  01E4                     l1901:	
  1630                           
  1631                           ;main.c: 83:                 max7219_writeChar(6, minutos_temp % 10);
  1632  01E4  3006               	movlw	6
  1633  01E5  0020               	movlb	0	; select bank0
  1634  01E6  00D3               	movwf	max7219_writeChar@pos
  1635  01E7  3000               	movlw	0
  1636  01E8  00D4               	movwf	max7219_writeChar@pos+1
  1637  01E9  300A               	movlw	10
  1638  01EA  00F1               	movwf	___awmod@divisor
  1639  01EB  3000               	movlw	0
  1640  01EC  00F2               	movwf	___awmod@divisor+1
  1641  01ED  082F               	movf	_minutos_temp+1,w
  1642  01EE  00F4               	movwf	___awmod@dividend+1
  1643  01EF  082E               	movf	_minutos_temp,w
  1644  01F0  00F3               	movwf	___awmod@dividend
  1645  01F1  3185  25A0  3180   	fcall	___awmod
  1646  01F4  0872               	movf	?___awmod+1,w
  1647  01F5  0020               	movlb	0	; select bank0
  1648  01F6  00D6               	movwf	max7219_writeChar@data+1
  1649  01F7  0871               	movf	?___awmod,w
  1650  01F8  00D5               	movwf	max7219_writeChar@data
  1651  01F9  3185  2546  3180   	fcall	_max7219_writeChar
  1652  01FC                     l1903:	
  1653                           
  1654                           ;main.c: 84:                 max7219_writeChar(2, segundos_temp / 10);
  1655  01FC  3002               	movlw	2
  1656  01FD  0020               	movlb	0	; select bank0
  1657  01FE  00D3               	movwf	max7219_writeChar@pos
  1658  01FF  3000               	movlw	0
  1659  0200  00D4               	movwf	max7219_writeChar@pos+1
  1660  0201  300A               	movlw	10
  1661  0202  00F1               	movwf	___awdiv@divisor
  1662  0203  3000               	movlw	0
  1663  0204  00F2               	movwf	___awdiv@divisor+1
  1664  0205  082D               	movf	_segundos_temp+1,w
  1665  0206  00F4               	movwf	___awdiv@dividend+1
  1666  0207  082C               	movf	_segundos_temp,w
  1667  0208  00F3               	movwf	___awdiv@dividend
  1668  0209  3184  24E7  3180   	fcall	___awdiv
  1669  020C  0872               	movf	?___awdiv+1,w
  1670  020D  0020               	movlb	0	; select bank0
  1671  020E  00D6               	movwf	max7219_writeChar@data+1
  1672  020F  0871               	movf	?___awdiv,w
  1673  0210  00D5               	movwf	max7219_writeChar@data
  1674  0211  3185  2546  3180   	fcall	_max7219_writeChar
  1675  0214                     l1905:	
  1676                           
  1677                           ;main.c: 85:                 max7219_writeChar(4, segundos_temp % 10);
  1678  0214  3004               	movlw	4
  1679  0215  0020               	movlb	0	; select bank0
  1680  0216  00D3               	movwf	max7219_writeChar@pos
  1681  0217  3000               	movlw	0
  1682  0218  00D4               	movwf	max7219_writeChar@pos+1
  1683  0219  300A               	movlw	10
  1684  021A  00F1               	movwf	___awmod@divisor
  1685  021B  3000               	movlw	0
  1686  021C  00F2               	movwf	___awmod@divisor+1
  1687  021D  082D               	movf	_segundos_temp+1,w
  1688  021E  00F4               	movwf	___awmod@dividend+1
  1689  021F  082C               	movf	_segundos_temp,w
  1690  0220  00F3               	movwf	___awmod@dividend
  1691  0221  3185  25A0  3180   	fcall	___awmod
  1692  0224  0872               	movf	?___awmod+1,w
  1693  0225  0020               	movlb	0	; select bank0
  1694  0226  00D6               	movwf	max7219_writeChar@data+1
  1695  0227  0871               	movf	?___awmod,w
  1696  0228  00D5               	movwf	max7219_writeChar@data
  1697  0229  3185  2546  3180   	fcall	_max7219_writeChar
  1698  022C  286F               	goto	l119
  1699  022D                     l1907:	
  1700                           
  1701                           ;main.c: 88:             if (input_pulsador_ok()) {
  1702  022D  3187  2741  3180   	fcall	_input_pulsador_ok
  1703  0230  0871               	movf	?_input_pulsador_ok,w
  1704  0231  0472               	iorwf	?_input_pulsador_ok+1,w
  1705  0232  1903               	btfsc	3,2
  1706  0233  2A35               	goto	u1551
  1707  0234  2A36               	goto	u1550
  1708  0235                     u1551:	
  1709  0235  286F               	goto	l119
  1710  0236                     u1550:	
  1711  0236                     l1909:	
  1712                           
  1713                           ;main.c: 89:                 eeprom_write(0, minutos_set);
  1714  0236  0020               	movlb	0	; select bank0
  1715  0237  0832               	movf	_minutos_set,w
  1716  0238  00E5               	movwf	??_main
  1717  0239  0865               	movf	??_main,w
  1718  023A  00F1               	movwf	eeprom_write@value
  1719  023B  3000               	movlw	0
  1720  023C  3186  26F1  3180   	fcall	_eeprom_write
  1721                           
  1722                           ;main.c: 90:                 eeprom_write(1, segundos_set);
  1723  023F  0020               	movlb	0	; select bank0
  1724  0240  0830               	movf	_segundos_set,w
  1725  0241  00E5               	movwf	??_main
  1726  0242  0865               	movf	??_main,w
  1727  0243  00F1               	movwf	eeprom_write@value
  1728  0244  3001               	movlw	1
  1729  0245  3186  26F1  3180   	fcall	_eeprom_write
  1730  0248                     l1911:	
  1731                           
  1732                           ;main.c: 91:                 minutos_temp = 0;
  1733  0248  0020               	movlb	0	; select bank0
  1734  0249  01AE               	clrf	_minutos_temp
  1735  024A  01AF               	clrf	_minutos_temp+1
  1736  024B                     l1913:	
  1737                           
  1738                           ;main.c: 92:                 segundos_temp = 0;
  1739  024B  01AC               	clrf	_segundos_temp
  1740  024C  01AD               	clrf	_segundos_temp+1
  1741                           
  1742                           ;main.c: 93:                 output_relay(1);
  1743  024D  3001               	movlw	1
  1744  024E  00F1               	movwf	output_relay@d
  1745  024F  3000               	movlw	0
  1746  0250  00F2               	movwf	output_relay@d+1
  1747  0251  3187  27F0  3180   	fcall	_output_relay
  1748  0254                     l1915:	
  1749                           
  1750                           ;main.c: 94:                 for (k = 0; k < 100000; k++);
  1751  0254  3000               	movlw	0
  1752  0255  0020               	movlb	0	; select bank0
  1753  0256  00A3               	movwf	_k+3
  1754  0257  3000               	movlw	0
  1755  0258  00A2               	movwf	_k+2
  1756  0259  3000               	movlw	0
  1757  025A  00A1               	movwf	_k+1
  1758  025B  3000               	movlw	0
  1759  025C  00A0               	movwf	_k
  1760  025D                     l1917:	
  1761  025D  1BA3               	btfsc	_k+3,7
  1762  025E  2A6B               	goto	u1561
  1763  025F  0823               	movf	_k+3,w
  1764  0260  1D03               	btfss	3,2
  1765  0261  2A6C               	goto	u1560
  1766  0262  30A0               	movlw	160
  1767  0263  0220               	subwf	_k,w
  1768  0264  3086               	movlw	134
  1769  0265  3B21               	subwfb	_k+1,w
  1770  0266  3001               	movlw	1
  1771  0267  3B22               	subwfb	_k+2,w
  1772  0268  1C03               	btfss	3,0
  1773  0269  2A6B               	goto	u1561
  1774  026A  2A6C               	goto	u1560
  1775  026B                     u1561:	
  1776  026B  2A6D               	goto	l1921
  1777  026C                     u1560:	
  1778  026C  2A76               	goto	l1925
  1779  026D                     l1921:	
  1780  026D  3001               	movlw	1
  1781  026E  07A0               	addwf	_k,f
  1782  026F  3000               	movlw	0
  1783  0270  3DA1               	addwfc	_k+1,f
  1784  0271  3000               	movlw	0
  1785  0272  3DA2               	addwfc	_k+2,f
  1786  0273  3000               	movlw	0
  1787  0274  3DA3               	addwfc	_k+3,f
  1788  0275  2A5D               	goto	l1917
  1789  0276                     l1925:	
  1790                           
  1791                           ;main.c: 95:                 output_relay(0);
  1792  0276  3000               	movlw	0
  1793  0277  00F1               	movwf	output_relay@d
  1794  0278  00F2               	movwf	output_relay@d+1
  1795  0279  3187  27F0  3180   	fcall	_output_relay
  1796  027C                     l1927:	
  1797                           
  1798                           ;main.c: 96:                 if (segundos_set > 2 || minutos_set > 0) {
  1799  027C  0020               	movlb	0	; select bank0
  1800  027D  0831               	movf	_segundos_set+1,w
  1801  027E  3A80               	xorlw	128
  1802  027F  00E5               	movwf	??_main
  1803  0280  3080               	movlw	128
  1804  0281  0265               	subwf	??_main,w
  1805  0282  1D03               	skipz
  1806  0283  2A86               	goto	u1575
  1807  0284  3003               	movlw	3
  1808  0285  0230               	subwf	_segundos_set,w
  1809  0286                     u1575:	
  1810  0286  1803               	skipnc
  1811  0287  2A89               	goto	u1571
  1812  0288  2A8A               	goto	u1570
  1813  0289                     u1571:	
  1814  0289  2A98               	goto	l1931
  1815  028A                     u1570:	
  1816  028A                     l1929:	
  1817  028A  0020               	movlb	0	; select bank0
  1818  028B  0833               	movf	_minutos_set+1,w
  1819  028C  3A80               	xorlw	128
  1820  028D  00E5               	movwf	??_main
  1821  028E  3080               	movlw	128
  1822  028F  0265               	subwf	??_main,w
  1823  0290  1D03               	skipz
  1824  0291  2A94               	goto	u1585
  1825  0292  3001               	movlw	1
  1826  0293  0232               	subwf	_minutos_set,w
  1827  0294                     u1585:	
  1828  0294  1C03               	skipc
  1829  0295  2A97               	goto	u1581
  1830  0296  2A98               	goto	u1580
  1831  0297                     u1581:	
  1832  0297  2AA1               	goto	l130
  1833  0298                     u1580:	
  1834  0298                     l1931:	
  1835                           
  1836                           ;main.c: 97:                     timer_0_enable();
  1837  0298  318F  27F4  3180   	fcall	_timer_0_enable
  1838  029B                     l1933:	
  1839                           
  1840                           ;main.c: 98:                     proceso = 1;
  1841  029B  3001               	movlw	1
  1842  029C  0020               	movlb	0	; select bank0
  1843  029D  00A6               	movwf	_proceso
  1844  029E  3000               	movlw	0
  1845  029F  00A7               	movwf	_proceso+1
  1846  02A0  286F               	goto	l119
  1847  02A1                     l130:	
  1848                           ;main.c: 101:         }
  1849                           
  1850  02A1  286F               	goto	l119
  1851  02A2  3180  2838         	ljmp	start
  1852  02A4                     __end_of_main:	
  1853                           
  1854                           	psect	text1
  1855  02A4                     __ptext1:	
  1856 ;; *************** function _update_eeprom *****************
  1857 ;; Defined at:
  1858 ;;		line 155 in file "main.c"
  1859 ;; Parameters:    Size  Location     Type
  1860 ;;		None
  1861 ;; Auto vars:     Size  Location     Type
  1862 ;;  usos            2   19[BANK0 ] unsigned int 
  1863 ;;  var2            2   17[BANK0 ] int 
  1864 ;;  var1            2   15[BANK0 ] int 
  1865 ;; Return value:  Size  Location     Type
  1866 ;;                  1    wreg      void 
  1867 ;; Registers used:
  1868 ;;		wreg, fsr1l, fsr1h, status,2, status,0, pclath, cstack
  1869 ;; Tracked objects:
  1870 ;;		On entry : 0/0
  1871 ;;		On exit  : 0/0
  1872 ;;		Unchanged: 0/0
  1873 ;; Data sizes:     COMMON   BANK0   BANK1   BANK2
  1874 ;;      Params:         0       0       0       0
  1875 ;;      Locals:         0      10       0       0
  1876 ;;      Temps:          0       2       0       0
  1877 ;;      Totals:         0      12       0       0
  1878 ;;Total ram usage:       12 bytes
  1879 ;; Hardware stack levels used:    1
  1880 ;; Hardware stack levels required when called:    3
  1881 ;; This function calls:
  1882 ;;		___lwdiv
  1883 ;;		___lwmod
  1884 ;;		_eeprom_read
  1885 ;;		_eeprom_write
  1886 ;;		_max7219_writeChar
  1887 ;; This function is called by:
  1888 ;;		_main
  1889 ;; This function uses a non-reentrant model
  1890 ;;
  1891                           
  1892                           
  1893                           ;psect for function _update_eeprom
  1894  02A4                     _update_eeprom:	
  1895  02A4                     l1701:	
  1896                           ;incstack = 0
  1897                           ; Regs used in _update_eeprom: [wreg+fsr1l+fsr1h+status,2+status,0+pclath+cstack]
  1898                           
  1899  02A4  0020               	movlb	0	; select bank0
  1900  02A5  01E1               	clrf	update_eeprom@var2
  1901  02A6  01E2               	clrf	update_eeprom@var2+1
  1902                           
  1903                           ;main.c: 157:     unsigned int usos = 0;
  1904  02A7  01E3               	clrf	update_eeprom@usos
  1905  02A8  01E4               	clrf	update_eeprom@usos+1
  1906  02A9                     l1703:	
  1907                           
  1908                           ;main.c: 158:     var1 = eeprom_read(0);
  1909  02A9  3000               	movlw	0
  1910  02AA  3187  27BE  3182   	fcall	_eeprom_read
  1911  02AD  0020               	movlb	0	; select bank0
  1912  02AE  00D9               	movwf	??_update_eeprom
  1913  02AF  01DA               	clrf	??_update_eeprom+1
  1914  02B0  0859               	movf	??_update_eeprom,w
  1915  02B1  00DF               	movwf	update_eeprom@var1
  1916  02B2  085A               	movf	??_update_eeprom+1,w
  1917  02B3  00E0               	movwf	update_eeprom@var1+1
  1918  02B4                     l1705:	
  1919                           
  1920                           ;main.c: 159:     minutos_set = var1;
  1921  02B4  0860               	movf	update_eeprom@var1+1,w
  1922  02B5  00B3               	movwf	_minutos_set+1
  1923  02B6  085F               	movf	update_eeprom@var1,w
  1924  02B7  00B2               	movwf	_minutos_set
  1925  02B8                     l1707:	
  1926                           
  1927                           ;main.c: 160:     var2 = eeprom_read(1);
  1928  02B8  3001               	movlw	1
  1929  02B9  3187  27BE  3182   	fcall	_eeprom_read
  1930  02BC  0020               	movlb	0	; select bank0
  1931  02BD  00D9               	movwf	??_update_eeprom
  1932  02BE  01DA               	clrf	??_update_eeprom+1
  1933  02BF  0859               	movf	??_update_eeprom,w
  1934  02C0  00E1               	movwf	update_eeprom@var2
  1935  02C1  085A               	movf	??_update_eeprom+1,w
  1936  02C2  00E2               	movwf	update_eeprom@var2+1
  1937  02C3                     l1709:	
  1938                           
  1939                           ;main.c: 161:     segundos_set = var2;
  1940  02C3  0862               	movf	update_eeprom@var2+1,w
  1941  02C4  00B1               	movwf	_segundos_set+1
  1942  02C5  0861               	movf	update_eeprom@var2,w
  1943  02C6  00B0               	movwf	_segundos_set
  1944  02C7                     l1711:	
  1945                           
  1946                           ;main.c: 162:     if (minutos_set == 0xFF || segundos_set == 0xFF) {
  1947  02C7  0A32               	incf	_minutos_set,w
  1948  02C8  0433               	iorwf	_minutos_set+1,w
  1949  02C9  1903               	btfsc	3,2
  1950  02CA  2ACC               	goto	u1361
  1951  02CB  2ACD               	goto	u1360
  1952  02CC                     u1361:	
  1953  02CC  2AD3               	goto	l1715
  1954  02CD                     u1360:	
  1955  02CD                     l1713:	
  1956  02CD  0A30               	incf	_segundos_set,w
  1957  02CE  0431               	iorwf	_segundos_set+1,w
  1958  02CF  1D03               	btfss	3,2
  1959  02D0  2AD2               	goto	u1371
  1960  02D1  2AD3               	goto	u1370
  1961  02D2                     u1371:	
  1962  02D2  2AD7               	goto	l1717
  1963  02D3                     u1370:	
  1964  02D3                     l1715:	
  1965                           
  1966                           ;main.c: 163:         minutos_set = 0;
  1967  02D3  01B2               	clrf	_minutos_set
  1968  02D4  01B3               	clrf	_minutos_set+1
  1969                           
  1970                           ;main.c: 164:         segundos_set = 0;
  1971  02D5  01B0               	clrf	_segundos_set
  1972  02D6  01B1               	clrf	_segundos_set+1
  1973  02D7                     l1717:	
  1974                           
  1975                           ;main.c: 167:     var1 = eeprom_read(2);
  1976  02D7  3002               	movlw	2
  1977  02D8  3187  27BE  3182   	fcall	_eeprom_read
  1978  02DB  0020               	movlb	0	; select bank0
  1979  02DC  00D9               	movwf	??_update_eeprom
  1980  02DD  01DA               	clrf	??_update_eeprom+1
  1981  02DE  0859               	movf	??_update_eeprom,w
  1982  02DF  00DF               	movwf	update_eeprom@var1
  1983  02E0  085A               	movf	??_update_eeprom+1,w
  1984  02E1  00E0               	movwf	update_eeprom@var1+1
  1985  02E2                     l1719:	
  1986                           
  1987                           ;main.c: 168:     var2 = eeprom_read(3);
  1988  02E2  3003               	movlw	3
  1989  02E3  3187  27BE  3182   	fcall	_eeprom_read
  1990  02E6  0020               	movlb	0	; select bank0
  1991  02E7  00D9               	movwf	??_update_eeprom
  1992  02E8  01DA               	clrf	??_update_eeprom+1
  1993  02E9  0859               	movf	??_update_eeprom,w
  1994  02EA  00E1               	movwf	update_eeprom@var2
  1995  02EB  085A               	movf	??_update_eeprom+1,w
  1996  02EC  00E2               	movwf	update_eeprom@var2+1
  1997  02ED                     l1721:	
  1998                           
  1999                           ;main.c: 169:     usos = var1;
  2000  02ED  0860               	movf	update_eeprom@var1+1,w
  2001  02EE  00E4               	movwf	update_eeprom@usos+1
  2002  02EF  085F               	movf	update_eeprom@var1,w
  2003  02F0  00E3               	movwf	update_eeprom@usos
  2004  02F1                     l1723:	
  2005                           
  2006                           ;main.c: 170:     usos <<= 8;
  2007  02F1  3008               	movlw	8
  2008  02F2                     u1385:	
  2009  02F2  35E3               	lslf	update_eeprom@usos,f
  2010  02F3  0DE4               	rlf	update_eeprom@usos+1,f
  2011  02F4  0B89               	decfsz	9,f
  2012  02F5  2AF2               	goto	u1385
  2013  02F6                     l1725:	
  2014                           
  2015                           ;main.c: 171:     usos |= var2;
  2016  02F6  0861               	movf	update_eeprom@var2,w
  2017  02F7  04E3               	iorwf	update_eeprom@usos,f
  2018  02F8  0862               	movf	update_eeprom@var2+1,w
  2019  02F9  04E4               	iorwf	update_eeprom@usos+1,f
  2020  02FA                     l1727:	
  2021                           
  2022                           ;main.c: 172:     if (usos == 0xFFFF) {
  2023  02FA  0A63               	incf	update_eeprom@usos,w
  2024  02FB  1D03               	skipz
  2025  02FC  2B01               	goto	u1391
  2026  02FD  0A64               	incf	update_eeprom@usos+1,w
  2027  02FE  1D03               	btfss	3,2
  2028  02FF  2B01               	goto	u1391
  2029  0300  2B02               	goto	u1390
  2030  0301                     u1391:	
  2031  0301  2B1A               	goto	l1737
  2032  0302                     u1390:	
  2033  0302                     l1729:	
  2034                           
  2035                           ;main.c: 173:         usos = 0;
  2036  0302  01E3               	clrf	update_eeprom@usos
  2037  0303  01E4               	clrf	update_eeprom@usos+1
  2038  0304                     l1731:	
  2039                           
  2040                           ;main.c: 174:         usos++;
  2041  0304  3001               	movlw	1
  2042  0305  07E3               	addwf	update_eeprom@usos,f
  2043  0306  3000               	movlw	0
  2044  0307  3DE4               	addwfc	update_eeprom@usos+1,f
  2045  0308                     l1733:	
  2046                           
  2047                           ;main.c: 175:         eeprom_write(2, usos >> 8);
  2048  0308  0864               	movf	update_eeprom@usos+1,w
  2049  0309  00D9               	movwf	??_update_eeprom
  2050  030A  0859               	movf	??_update_eeprom,w
  2051  030B  00F1               	movwf	eeprom_write@value
  2052  030C  3002               	movlw	2
  2053  030D  3186  26F1  3182   	fcall	_eeprom_write
  2054  0310                     l1735:	
  2055                           
  2056                           ;main.c: 176:         eeprom_write(3, usos);
  2057  0310  0020               	movlb	0	; select bank0
  2058  0311  0863               	movf	update_eeprom@usos,w
  2059  0312  00D9               	movwf	??_update_eeprom
  2060  0313  0859               	movf	??_update_eeprom,w
  2061  0314  00F1               	movwf	eeprom_write@value
  2062  0315  3003               	movlw	3
  2063  0316  3186  26F1  3182   	fcall	_eeprom_write
  2064                           
  2065                           ;main.c: 177:     } else {
  2066  0319  2B2F               	goto	l1743
  2067  031A                     l1737:	
  2068                           
  2069                           ;main.c: 178:         usos++;
  2070  031A  3001               	movlw	1
  2071  031B  07E3               	addwf	update_eeprom@usos,f
  2072  031C  3000               	movlw	0
  2073  031D  3DE4               	addwfc	update_eeprom@usos+1,f
  2074  031E                     l1739:	
  2075                           
  2076                           ;main.c: 179:         eeprom_write(2, usos >> 8);
  2077  031E  0864               	movf	update_eeprom@usos+1,w
  2078  031F  00D9               	movwf	??_update_eeprom
  2079  0320  0859               	movf	??_update_eeprom,w
  2080  0321  00F1               	movwf	eeprom_write@value
  2081  0322  3002               	movlw	2
  2082  0323  3186  26F1  3182   	fcall	_eeprom_write
  2083  0326                     l1741:	
  2084                           
  2085                           ;main.c: 180:         eeprom_write(3, usos);
  2086  0326  0020               	movlb	0	; select bank0
  2087  0327  0863               	movf	update_eeprom@usos,w
  2088  0328  00D9               	movwf	??_update_eeprom
  2089  0329  0859               	movf	??_update_eeprom,w
  2090  032A  00F1               	movwf	eeprom_write@value
  2091  032B  3003               	movlw	3
  2092  032C  3186  26F1  3182   	fcall	_eeprom_write
  2093  032F                     l1743:	
  2094                           
  2095                           ;main.c: 182:     max7219_writeChar(1, usos / 1000);
  2096  032F  3001               	movlw	1
  2097  0330  0020               	movlb	0	; select bank0
  2098  0331  00D3               	movwf	max7219_writeChar@pos
  2099  0332  3000               	movlw	0
  2100  0333  00D4               	movwf	max7219_writeChar@pos+1
  2101  0334  30E8               	movlw	232
  2102  0335  00F7               	movwf	___lwdiv@divisor
  2103  0336  3003               	movlw	3
  2104  0337  00F8               	movwf	___lwdiv@divisor+1
  2105  0338  0864               	movf	update_eeprom@usos+1,w
  2106  0339  00FA               	movwf	___lwdiv@dividend+1
  2107  033A  0863               	movf	update_eeprom@usos,w
  2108  033B  00F9               	movwf	___lwdiv@dividend
  2109  033C  3186  2680  3182   	fcall	___lwdiv
  2110  033F  0878               	movf	?___lwdiv+1,w
  2111  0340  0020               	movlb	0	; select bank0
  2112  0341  00D6               	movwf	max7219_writeChar@data+1
  2113  0342  0877               	movf	?___lwdiv,w
  2114  0343  00D5               	movwf	max7219_writeChar@data
  2115  0344  3185  2546  3182   	fcall	_max7219_writeChar
  2116  0347                     l1745:	
  2117                           
  2118                           ;main.c: 183:     max7219_writeChar(5, (usos % 1000) / 100);
  2119  0347  3005               	movlw	5
  2120  0348  0020               	movlb	0	; select bank0
  2121  0349  00D3               	movwf	max7219_writeChar@pos
  2122  034A  3000               	movlw	0
  2123  034B  00D4               	movwf	max7219_writeChar@pos+1
  2124  034C  3064               	movlw	100
  2125  034D  00F7               	movwf	___lwdiv@divisor
  2126  034E  3000               	movlw	0
  2127  034F  00F8               	movwf	___lwdiv@divisor+1
  2128  0350  0864               	movf	update_eeprom@usos+1,w
  2129  0351  00F4               	movwf	___lwmod@dividend+1
  2130  0352  0863               	movf	update_eeprom@usos,w
  2131  0353  00F3               	movwf	___lwmod@dividend
  2132  0354  30E8               	movlw	232
  2133  0355  00F1               	movwf	___lwmod@divisor
  2134  0356  3003               	movlw	3
  2135  0357  00F2               	movwf	___lwmod@divisor+1
  2136  0358  3186  26BD  3182   	fcall	___lwmod
  2137  035B  0872               	movf	?___lwmod+1,w
  2138  035C  00FA               	movwf	___lwdiv@dividend+1
  2139  035D  0871               	movf	?___lwmod,w
  2140  035E  00F9               	movwf	___lwdiv@dividend
  2141  035F  3186  2680  3182   	fcall	___lwdiv
  2142  0362  0878               	movf	?___lwdiv+1,w
  2143  0363  0020               	movlb	0	; select bank0
  2144  0364  00D6               	movwf	max7219_writeChar@data+1
  2145  0365  0877               	movf	?___lwdiv,w
  2146  0366  00D5               	movwf	max7219_writeChar@data
  2147  0367  3185  2546  3182   	fcall	_max7219_writeChar
  2148  036A                     l1747:	
  2149                           
  2150                           ;main.c: 184:     max7219_writeChar(7, ((usos % 1000) % 100) / 10);
  2151  036A  0020               	movlb	0	; select bank0
  2152  036B  0864               	movf	update_eeprom@usos+1,w
  2153  036C  00F4               	movwf	___lwmod@dividend+1
  2154  036D  0863               	movf	update_eeprom@usos,w
  2155  036E  00F3               	movwf	___lwmod@dividend
  2156  036F  30E8               	movlw	232
  2157  0370  00F1               	movwf	___lwmod@divisor
  2158  0371  3003               	movlw	3
  2159  0372  00F2               	movwf	___lwmod@divisor+1
  2160  0373  3186  26BD  3182   	fcall	___lwmod
  2161  0376  0872               	movf	?___lwmod+1,w
  2162  0377  0020               	movlb	0	; select bank0
  2163  0378  00DE               	movwf	_update_eeprom$1084+1
  2164  0379  0871               	movf	?___lwmod,w
  2165  037A  00DD               	movwf	_update_eeprom$1084
  2166  037B                     l1749:	
  2167                           
  2168                           ;main.c: 184:     max7219_writeChar(7, ((usos % 1000) % 100) / 10);
  2169  037B  3007               	movlw	7
  2170  037C  00D3               	movwf	max7219_writeChar@pos
  2171  037D  3000               	movlw	0
  2172  037E  00D4               	movwf	max7219_writeChar@pos+1
  2173  037F  300A               	movlw	10
  2174  0380  00F7               	movwf	___lwdiv@divisor
  2175  0381  3000               	movlw	0
  2176  0382  00F8               	movwf	___lwdiv@divisor+1
  2177  0383  085E               	movf	_update_eeprom$1084+1,w
  2178  0384  00F4               	movwf	___lwmod@dividend+1
  2179  0385  085D               	movf	_update_eeprom$1084,w
  2180  0386  00F3               	movwf	___lwmod@dividend
  2181  0387  3064               	movlw	100
  2182  0388  00F1               	movwf	___lwmod@divisor
  2183  0389  3000               	movlw	0
  2184  038A  00F2               	movwf	___lwmod@divisor+1
  2185  038B  3186  26BD  3182   	fcall	___lwmod
  2186  038E  0872               	movf	?___lwmod+1,w
  2187  038F  00FA               	movwf	___lwdiv@dividend+1
  2188  0390  0871               	movf	?___lwmod,w
  2189  0391  00F9               	movwf	___lwdiv@dividend
  2190  0392  3186  2680  3182   	fcall	___lwdiv
  2191  0395  0878               	movf	?___lwdiv+1,w
  2192  0396  0020               	movlb	0	; select bank0
  2193  0397  00D6               	movwf	max7219_writeChar@data+1
  2194  0398  0877               	movf	?___lwdiv,w
  2195  0399  00D5               	movwf	max7219_writeChar@data
  2196  039A  3185  2546  3182   	fcall	_max7219_writeChar
  2197  039D                     l1751:	
  2198                           
  2199                           ;main.c: 185:     max7219_writeChar(3, ((usos % 1000) % 100) % 10);
  2200  039D  0020               	movlb	0	; select bank0
  2201  039E  0864               	movf	update_eeprom@usos+1,w
  2202  039F  00F4               	movwf	___lwmod@dividend+1
  2203  03A0  0863               	movf	update_eeprom@usos,w
  2204  03A1  00F3               	movwf	___lwmod@dividend
  2205  03A2  30E8               	movlw	232
  2206  03A3  00F1               	movwf	___lwmod@divisor
  2207  03A4  3003               	movlw	3
  2208  03A5  00F2               	movwf	___lwmod@divisor+1
  2209  03A6  3186  26BD  3182   	fcall	___lwmod
  2210  03A9  0872               	movf	?___lwmod+1,w
  2211  03AA  0020               	movlb	0	; select bank0
  2212  03AB  00DE               	movwf	_update_eeprom$1084+1
  2213  03AC  0871               	movf	?___lwmod,w
  2214  03AD  00DD               	movwf	_update_eeprom$1084
  2215  03AE                     l1753:	
  2216                           
  2217                           ;main.c: 185:     max7219_writeChar(3, ((usos % 1000) % 100) % 10);
  2218  03AE  085E               	movf	_update_eeprom$1084+1,w
  2219  03AF  00F4               	movwf	___lwmod@dividend+1
  2220  03B0  085D               	movf	_update_eeprom$1084,w
  2221  03B1  00F3               	movwf	___lwmod@dividend
  2222  03B2  3064               	movlw	100
  2223  03B3  00F1               	movwf	___lwmod@divisor
  2224  03B4  3000               	movlw	0
  2225  03B5  00F2               	movwf	___lwmod@divisor+1
  2226  03B6  3186  26BD  3182   	fcall	___lwmod
  2227  03B9  0872               	movf	?___lwmod+1,w
  2228  03BA  0020               	movlb	0	; select bank0
  2229  03BB  00DC               	movwf	_update_eeprom$1085+1
  2230  03BC  0871               	movf	?___lwmod,w
  2231  03BD  00DB               	movwf	_update_eeprom$1085
  2232  03BE                     l1755:	
  2233                           
  2234                           ;main.c: 185:     max7219_writeChar(3, ((usos % 1000) % 100) % 10);
  2235  03BE  3003               	movlw	3
  2236  03BF  00D3               	movwf	max7219_writeChar@pos
  2237  03C0  3000               	movlw	0
  2238  03C1  00D4               	movwf	max7219_writeChar@pos+1
  2239  03C2  300A               	movlw	10
  2240  03C3  00F1               	movwf	___lwmod@divisor
  2241  03C4  3000               	movlw	0
  2242  03C5  00F2               	movwf	___lwmod@divisor+1
  2243  03C6  085C               	movf	_update_eeprom$1085+1,w
  2244  03C7  00F4               	movwf	___lwmod@dividend+1
  2245  03C8  085B               	movf	_update_eeprom$1085,w
  2246  03C9  00F3               	movwf	___lwmod@dividend
  2247  03CA  3186  26BD  3182   	fcall	___lwmod
  2248  03CD  0872               	movf	?___lwmod+1,w
  2249  03CE  0020               	movlb	0	; select bank0
  2250  03CF  00D6               	movwf	max7219_writeChar@data+1
  2251  03D0  0871               	movf	?___lwmod,w
  2252  03D1  00D5               	movwf	max7219_writeChar@data
  2253  03D2  3185  2546  3182   	fcall	_max7219_writeChar
  2254  03D5                     l1757:	
  2255                           
  2256                           ;main.c: 186:     for (k = 0; k < 500000; k++);
  2257  03D5  3000               	movlw	0
  2258  03D6  0020               	movlb	0	; select bank0
  2259  03D7  00A3               	movwf	_k+3
  2260  03D8  3000               	movlw	0
  2261  03D9  00A2               	movwf	_k+2
  2262  03DA  3000               	movlw	0
  2263  03DB  00A1               	movwf	_k+1
  2264  03DC  3000               	movlw	0
  2265  03DD  00A0               	movwf	_k
  2266  03DE                     l1759:	
  2267  03DE  1BA3               	btfsc	_k+3,7
  2268  03DF  2BEC               	goto	u1401
  2269  03E0  0823               	movf	_k+3,w
  2270  03E1  1D03               	btfss	3,2
  2271  03E2  2BED               	goto	u1400
  2272  03E3  3020               	movlw	32
  2273  03E4  0220               	subwf	_k,w
  2274  03E5  30A1               	movlw	161
  2275  03E6  3B21               	subwfb	_k+1,w
  2276  03E7  3007               	movlw	7
  2277  03E8  3B22               	subwfb	_k+2,w
  2278  03E9  1C03               	btfss	3,0
  2279  03EA  2BEC               	goto	u1401
  2280  03EB  2BED               	goto	u1400
  2281  03EC                     u1401:	
  2282  03EC  2BEE               	goto	l1763
  2283  03ED                     u1400:	
  2284  03ED  2BF7               	goto	l172
  2285  03EE                     l1763:	
  2286  03EE  3001               	movlw	1
  2287  03EF  07A0               	addwf	_k,f
  2288  03F0  3000               	movlw	0
  2289  03F1  3DA1               	addwfc	_k+1,f
  2290  03F2  3000               	movlw	0
  2291  03F3  3DA2               	addwfc	_k+2,f
  2292  03F4  3000               	movlw	0
  2293  03F5  3DA3               	addwfc	_k+3,f
  2294  03F6  2BDE               	goto	l1759
  2295  03F7                     l172:	
  2296  03F7  0008               	return
  2297  03F8                     __end_of_update_eeprom:	
  2298                           
  2299                           	psect	text2
  2300  06F1                     __ptext2:	
  2301 ;; *************** function _eeprom_write *****************
  2302 ;; Defined at:
  2303 ;;		line 6 in file "C:\Program Files (x86)\Microchip\xc8\v2.10\pic\sources\c99\pic\__eewrite.c"
  2304 ;; Parameters:    Size  Location     Type
  2305 ;;  addr            1    wreg     unsigned char 
  2306 ;;  value           1    1[COMMON] unsigned char 
  2307 ;; Auto vars:     Size  Location     Type
  2308 ;;  addr            1    4[COMMON] unsigned char 
  2309 ;; Return value:  Size  Location     Type
  2310 ;;                  1    wreg      void 
  2311 ;; Registers used:
  2312 ;;		wreg, status,2, status,0
  2313 ;; Tracked objects:
  2314 ;;		On entry : 0/0
  2315 ;;		On exit  : 0/0
  2316 ;;		Unchanged: 0/0
  2317 ;; Data sizes:     COMMON   BANK0   BANK1   BANK2
  2318 ;;      Params:         1       0       0       0
  2319 ;;      Locals:         1       0       0       0
  2320 ;;      Temps:          2       0       0       0
  2321 ;;      Totals:         4       0       0       0
  2322 ;;Total ram usage:        4 bytes
  2323 ;; Hardware stack levels used:    1
  2324 ;; Hardware stack levels required when called:    1
  2325 ;; This function calls:
  2326 ;;		Nothing
  2327 ;; This function is called by:
  2328 ;;		_main
  2329 ;;		_update_eeprom
  2330 ;; This function uses a non-reentrant model
  2331 ;;
  2332                           
  2333                           
  2334                           ;psect for function _eeprom_write
  2335  06F1                     _eeprom_write:	
  2336                           
  2337                           ;incstack = 0
  2338                           ; Regs used in _eeprom_write: [wreg+status,2+status,0]
  2339                           ;eeprom_write@addr stored from wreg
  2340  06F1  00F4               	movwf	eeprom_write@addr
  2341  06F2                     l358:	
  2342                           ;C:\Program Files (x86)\Microchip\xc8\v2.10\pic\sources\c99\pic\__eewrite.c: 6: eeprom_w
      +                          rite(unsigned char addr, unsigned char value);C:\Program Files (x86)\Microchip\xc8\v2.10
      +                          \pic\sources\c99\pic\__eewrite.c: 7: {;C:\Program Files (x86)\Microchip\xc8\v2.10\pic\so
      +                          urces\c99\pic\__eewrite.c: 8:  do{ while (EECON1bits.WR) { continue; } EEADR = (addr); E
      +                          EDATA = (value); EECON1 &= 0x3F; STATUSbits.CARRY = 0; if (INTCONbits.GIE) { STATUSbits.
      +                          CARRY = 1; } INTCONbits.GIE = 0; EECON1bits.WREN = 1; EECON2 = 0x55; EECON2 = 0xAA; EECO
      +                          N1bits.WR = 1; EECON1bits.WREN = 0; if (STATUSbits.CARRY) { INTCONbits.GIE = 1; } } whil
      +                          e (0);
  2343                           
  2344  06F2                     l359:	
  2345  06F2  0023               	movlb	3	; select bank3
  2346  06F3  1895               	btfsc	21,1	;volsfr
  2347  06F4  2EF6               	goto	u931
  2348  06F5  2EF7               	goto	u930
  2349  06F6                     u931:	
  2350  06F6  2EF2               	goto	l359
  2351  06F7                     u930:	
  2352  06F7                     l1437:	
  2353  06F7  0874               	movf	eeprom_write@addr,w
  2354  06F8  00F2               	movwf	??_eeprom_write
  2355  06F9  01F3               	clrf	??_eeprom_write+1
  2356  06FA  0872               	movf	??_eeprom_write,w
  2357  06FB  0091               	movwf	17	;volatile
  2358  06FC  0873               	movf	??_eeprom_write+1,w
  2359  06FD  0092               	movwf	18	;volatile
  2360  06FE  0871               	movf	eeprom_write@value,w
  2361  06FF  0093               	movwf	19	;volatile
  2362  0700                     l1439:	
  2363  0700  303F               	movlw	63
  2364  0701  00F2               	movwf	??_eeprom_write
  2365  0702  0872               	movf	??_eeprom_write,w
  2366  0703  0595               	andwf	21,f	;volsfr
  2367  0704                     l1441:	
  2368  0704  0020               	movlb	0	; select bank0
  2369  0705  1003               	bcf	3,0	;volatile
  2370  0706                     l1443:	
  2371  0706  1F8B               	btfss	11,7	;volatile
  2372  0707  2F09               	goto	u941
  2373  0708  2F0A               	goto	u940
  2374  0709                     u941:	
  2375  0709  2F0B               	goto	l362
  2376  070A                     u940:	
  2377  070A                     l1445:	
  2378  070A  1403               	bsf	3,0	;volatile
  2379  070B                     l362:	
  2380  070B  138B               	bcf	11,7	;volatile
  2381  070C  0023               	movlb	3	; select bank3
  2382  070D  1515               	bsf	21,2	;volsfr
  2383  070E                     l1447:	
  2384  070E  3055               	movlw	85
  2385  070F  0096               	movwf	22	;volsfr
  2386  0710  30AA               	movlw	170
  2387  0711  0096               	movwf	22	;volsfr
  2388  0712                     l1449:	
  2389  0712  1495               	bsf	21,1	;volsfr
  2390  0713                     l1451:	
  2391  0713  1115               	bcf	21,2	;volsfr
  2392  0714                     l1453:	
  2393  0714  0020               	movlb	0	; select bank0
  2394  0715  1C03               	btfss	3,0	;volatile
  2395  0716  2F18               	goto	u951
  2396  0717  2F19               	goto	u950
  2397  0718                     u951:	
  2398  0718  2F1A               	goto	l365
  2399  0719                     u950:	
  2400  0719                     l1455:	
  2401  0719  178B               	bsf	11,7	;volatile
  2402  071A                     l365:	
  2403  071A  0008               	return
  2404  071B                     __end_of_eeprom_write:	
  2405                           
  2406                           	psect	text3
  2407  07BE                     __ptext3:	
  2408 ;; *************** function _eeprom_read *****************
  2409 ;; Defined at:
  2410 ;;		line 6 in file "C:\Program Files (x86)\Microchip\xc8\v2.10\pic\sources\c99\pic\__eeread.c"
  2411 ;; Parameters:    Size  Location     Type
  2412 ;;  addr            1    wreg     unsigned char 
  2413 ;; Auto vars:     Size  Location     Type
  2414 ;;  addr            1    4[COMMON] unsigned char 
  2415 ;; Return value:  Size  Location     Type
  2416 ;;                  1    wreg      unsigned char 
  2417 ;; Registers used:
  2418 ;;		wreg, status,2, status,0
  2419 ;; Tracked objects:
  2420 ;;		On entry : 0/0
  2421 ;;		On exit  : 0/0
  2422 ;;		Unchanged: 0/0
  2423 ;; Data sizes:     COMMON   BANK0   BANK1   BANK2
  2424 ;;      Params:         0       0       0       0
  2425 ;;      Locals:         1       0       0       0
  2426 ;;      Temps:          3       0       0       0
  2427 ;;      Totals:         4       0       0       0
  2428 ;;Total ram usage:        4 bytes
  2429 ;; Hardware stack levels used:    1
  2430 ;; Hardware stack levels required when called:    1
  2431 ;; This function calls:
  2432 ;;		Nothing
  2433 ;; This function is called by:
  2434 ;;		_update_eeprom
  2435 ;; This function uses a non-reentrant model
  2436 ;;
  2437                           
  2438                           
  2439                           ;psect for function _eeprom_read
  2440  07BE                     _eeprom_read:	
  2441                           
  2442                           ;incstack = 0
  2443                           ; Regs used in _eeprom_read: [wreg+status,2+status,0]
  2444                           ;eeprom_read@addr stored from wreg
  2445  07BE  00F4               	movwf	eeprom_read@addr
  2446  07BF                     l339:	
  2447                           ;C:\Program Files (x86)\Microchip\xc8\v2.10\pic\sources\c99\pic\__eeread.c: 6: eeprom_re
      +                          ad(unsigned char addr);C:\Program Files (x86)\Microchip\xc8\v2.10\pic\sources\c99\pic\__
      +                          eeread.c: 7: {;C:\Program Files (x86)\Microchip\xc8\v2.10\pic\sources\c99\pic\__eeread.c
      +                          : 8:  do
  2448                           
  2449  07BF  0064               	clrwdt	;# 
  2450  07C0  0023               	movlb	3	; select bank3
  2451  07C1  1895               	btfsc	21,1	;volsfr
  2452  07C2  2FC4               	goto	u961
  2453  07C3  2FC5               	goto	u960
  2454  07C4                     u961:	
  2455  07C4  2FBF               	goto	l339
  2456  07C5                     u960:	
  2457  07C5                     l1457:	
  2458                           
  2459                           ;C:\Program Files (x86)\Microchip\xc8\v2.10\pic\sources\c99\pic\__eeread.c: 18:  return 
      +                          ( EEADR = addr, EECON1 &= 0x3F, EECON1bits.RD = 1, EEDATA);
  2460  07C5  0874               	movf	eeprom_read@addr,w
  2461  07C6  00F1               	movwf	??_eeprom_read
  2462  07C7  01F2               	clrf	??_eeprom_read+1
  2463  07C8  0871               	movf	??_eeprom_read,w
  2464  07C9  0091               	movwf	17	;volatile
  2465  07CA  0872               	movf	??_eeprom_read+1,w
  2466  07CB  0092               	movwf	18	;volatile
  2467  07CC  303F               	movlw	63
  2468  07CD  00F3               	movwf	??_eeprom_read+2
  2469  07CE  0873               	movf	??_eeprom_read+2,w
  2470  07CF  0595               	andwf	21,f	;volsfr
  2471  07D0  1415               	bsf	21,0	;volsfr
  2472  07D1  0813               	movf	19,w	;volatile
  2473  07D2                     l341:	
  2474  07D2  0008               	return
  2475  07D3                     __end_of_eeprom_read:	
  2476                           
  2477                           	psect	text4
  2478  06BD                     __ptext4:	
  2479 ;; *************** function ___lwmod *****************
  2480 ;; Defined at:
  2481 ;;		line 5 in file "C:\Program Files (x86)\Microchip\xc8\v2.10\pic\sources\c99\common\lwmod.c"
  2482 ;; Parameters:    Size  Location     Type
  2483 ;;  divisor         2    1[COMMON] unsigned int 
  2484 ;;  dividend        2    3[COMMON] unsigned int 
  2485 ;; Auto vars:     Size  Location     Type
  2486 ;;  counter         1    6[COMMON] unsigned char 
  2487 ;; Return value:  Size  Location     Type
  2488 ;;                  2    1[COMMON] unsigned int 
  2489 ;; Registers used:
  2490 ;;		wreg, status,2, status,0
  2491 ;; Tracked objects:
  2492 ;;		On entry : 0/0
  2493 ;;		On exit  : 0/0
  2494 ;;		Unchanged: 0/0
  2495 ;; Data sizes:     COMMON   BANK0   BANK1   BANK2
  2496 ;;      Params:         4       0       0       0
  2497 ;;      Locals:         1       0       0       0
  2498 ;;      Temps:          1       0       0       0
  2499 ;;      Totals:         6       0       0       0
  2500 ;;Total ram usage:        6 bytes
  2501 ;; Hardware stack levels used:    1
  2502 ;; Hardware stack levels required when called:    1
  2503 ;; This function calls:
  2504 ;;		Nothing
  2505 ;; This function is called by:
  2506 ;;		_update_eeprom
  2507 ;; This function uses a non-reentrant model
  2508 ;;
  2509                           
  2510                           
  2511                           ;psect for function ___lwmod
  2512  06BD                     ___lwmod:	
  2513  06BD                     l1569:	
  2514                           ;incstack = 0
  2515                           ; Regs used in ___lwmod: [wreg+status,2+status,0]
  2516                           
  2517  06BD  0871               	movf	___lwmod@divisor,w
  2518  06BE  0472               	iorwf	___lwmod@divisor+1,w
  2519  06BF  1903               	btfsc	3,2
  2520  06C0  2EC2               	goto	u1231
  2521  06C1  2EC3               	goto	u1230
  2522  06C2                     u1231:	
  2523  06C2  2EEC               	goto	l1587
  2524  06C3                     u1230:	
  2525  06C3                     l1571:	
  2526  06C3  01F6               	clrf	___lwmod@counter
  2527  06C4  0AF6               	incf	___lwmod@counter,f
  2528  06C5  2ECF               	goto	l1577
  2529  06C6                     l1573:	
  2530  06C6  3001               	movlw	1
  2531  06C7                     u1245:	
  2532  06C7  35F1               	lslf	___lwmod@divisor,f
  2533  06C8  0DF2               	rlf	___lwmod@divisor+1,f
  2534  06C9  0B89               	decfsz	9,f
  2535  06CA  2EC7               	goto	u1245
  2536  06CB                     l1575:	
  2537  06CB  3001               	movlw	1
  2538  06CC  00F5               	movwf	??___lwmod
  2539  06CD  0875               	movf	??___lwmod,w
  2540  06CE  07F6               	addwf	___lwmod@counter,f
  2541  06CF                     l1577:	
  2542  06CF  1FF2               	btfss	___lwmod@divisor+1,7
  2543  06D0  2ED2               	goto	u1251
  2544  06D1  2ED3               	goto	u1250
  2545  06D2                     u1251:	
  2546  06D2  2EC6               	goto	l1573
  2547  06D3                     u1250:	
  2548  06D3                     l1579:	
  2549  06D3  0872               	movf	___lwmod@divisor+1,w
  2550  06D4  0274               	subwf	___lwmod@dividend+1,w
  2551  06D5  1D03               	skipz
  2552  06D6  2ED9               	goto	u1265
  2553  06D7  0871               	movf	___lwmod@divisor,w
  2554  06D8  0273               	subwf	___lwmod@dividend,w
  2555  06D9                     u1265:	
  2556  06D9  1C03               	skipc
  2557  06DA  2EDC               	goto	u1261
  2558  06DB  2EDD               	goto	u1260
  2559  06DC                     u1261:	
  2560  06DC  2EE1               	goto	l1583
  2561  06DD                     u1260:	
  2562  06DD                     l1581:	
  2563  06DD  0871               	movf	___lwmod@divisor,w
  2564  06DE  02F3               	subwf	___lwmod@dividend,f
  2565  06DF  0872               	movf	___lwmod@divisor+1,w
  2566  06E0  3BF4               	subwfb	___lwmod@dividend+1,f
  2567  06E1                     l1583:	
  2568  06E1  3001               	movlw	1
  2569  06E2                     u1275:	
  2570  06E2  36F2               	lsrf	___lwmod@divisor+1,f
  2571  06E3  0CF1               	rrf	___lwmod@divisor,f
  2572  06E4  0B89               	decfsz	9,f
  2573  06E5  2EE2               	goto	u1275
  2574  06E6                     l1585:	
  2575  06E6  3001               	movlw	1
  2576  06E7  02F6               	subwf	___lwmod@counter,f
  2577  06E8  1D03               	btfss	3,2
  2578  06E9  2EEB               	goto	u1281
  2579  06EA  2EEC               	goto	u1280
  2580  06EB                     u1281:	
  2581  06EB  2ED3               	goto	l1579
  2582  06EC                     u1280:	
  2583  06EC                     l1587:	
  2584  06EC  0874               	movf	___lwmod@dividend+1,w
  2585  06ED  00F2               	movwf	?___lwmod+1
  2586  06EE  0873               	movf	___lwmod@dividend,w
  2587  06EF  00F1               	movwf	?___lwmod
  2588  06F0                     l659:	
  2589  06F0  0008               	return
  2590  06F1                     __end_of___lwmod:	
  2591                           
  2592                           	psect	text5
  2593  0680                     __ptext5:	
  2594 ;; *************** function ___lwdiv *****************
  2595 ;; Defined at:
  2596 ;;		line 5 in file "C:\Program Files (x86)\Microchip\xc8\v2.10\pic\sources\c99\common\lwdiv.c"
  2597 ;; Parameters:    Size  Location     Type
  2598 ;;  divisor         2    7[COMMON] unsigned int 
  2599 ;;  dividend        2    9[COMMON] unsigned int 
  2600 ;; Auto vars:     Size  Location     Type
  2601 ;;  quotient        2    0[BANK0 ] unsigned int 
  2602 ;;  counter         1    2[BANK0 ] unsigned char 
  2603 ;; Return value:  Size  Location     Type
  2604 ;;                  2    7[COMMON] unsigned int 
  2605 ;; Registers used:
  2606 ;;		wreg, status,2, status,0
  2607 ;; Tracked objects:
  2608 ;;		On entry : 0/0
  2609 ;;		On exit  : 0/0
  2610 ;;		Unchanged: 0/0
  2611 ;; Data sizes:     COMMON   BANK0   BANK1   BANK2
  2612 ;;      Params:         4       0       0       0
  2613 ;;      Locals:         0       3       0       0
  2614 ;;      Temps:          1       0       0       0
  2615 ;;      Totals:         5       3       0       0
  2616 ;;Total ram usage:        8 bytes
  2617 ;; Hardware stack levels used:    1
  2618 ;; Hardware stack levels required when called:    1
  2619 ;; This function calls:
  2620 ;;		Nothing
  2621 ;; This function is called by:
  2622 ;;		_update_eeprom
  2623 ;; This function uses a non-reentrant model
  2624 ;;
  2625                           
  2626                           
  2627                           ;psect for function ___lwdiv
  2628  0680                     ___lwdiv:	
  2629  0680                     l1543:	
  2630                           ;incstack = 0
  2631                           ; Regs used in ___lwdiv: [wreg+status,2+status,0]
  2632                           
  2633  0680  0020               	movlb	0	; select bank0
  2634  0681  01D0               	clrf	___lwdiv@quotient
  2635  0682  01D1               	clrf	___lwdiv@quotient+1
  2636  0683                     l1545:	
  2637  0683  0877               	movf	___lwdiv@divisor,w
  2638  0684  0478               	iorwf	___lwdiv@divisor+1,w
  2639  0685  1903               	btfsc	3,2
  2640  0686  2E88               	goto	u1161
  2641  0687  2E89               	goto	u1160
  2642  0688                     u1161:	
  2643  0688  2EB8               	goto	l1565
  2644  0689                     u1160:	
  2645  0689                     l1547:	
  2646  0689  01D2               	clrf	___lwdiv@counter
  2647  068A  0AD2               	incf	___lwdiv@counter,f
  2648  068B  2E95               	goto	l1553
  2649  068C                     l1549:	
  2650  068C  3001               	movlw	1
  2651  068D                     u1175:	
  2652  068D  35F7               	lslf	___lwdiv@divisor,f
  2653  068E  0DF8               	rlf	___lwdiv@divisor+1,f
  2654  068F  0B89               	decfsz	9,f
  2655  0690  2E8D               	goto	u1175
  2656  0691                     l1551:	
  2657  0691  3001               	movlw	1
  2658  0692  00FB               	movwf	??___lwdiv
  2659  0693  087B               	movf	??___lwdiv,w
  2660  0694  07D2               	addwf	___lwdiv@counter,f
  2661  0695                     l1553:	
  2662  0695  1FF8               	btfss	___lwdiv@divisor+1,7
  2663  0696  2E98               	goto	u1181
  2664  0697  2E99               	goto	u1180
  2665  0698                     u1181:	
  2666  0698  2E8C               	goto	l1549
  2667  0699                     u1180:	
  2668  0699                     l1555:	
  2669  0699  3001               	movlw	1
  2670  069A                     u1195:	
  2671  069A  35D0               	lslf	___lwdiv@quotient,f
  2672  069B  0DD1               	rlf	___lwdiv@quotient+1,f
  2673  069C  0B89               	decfsz	9,f
  2674  069D  2E9A               	goto	u1195
  2675  069E  0878               	movf	___lwdiv@divisor+1,w
  2676  069F  027A               	subwf	___lwdiv@dividend+1,w
  2677  06A0  1D03               	skipz
  2678  06A1  2EA4               	goto	u1205
  2679  06A2  0877               	movf	___lwdiv@divisor,w
  2680  06A3  0279               	subwf	___lwdiv@dividend,w
  2681  06A4                     u1205:	
  2682  06A4  1C03               	skipc
  2683  06A5  2EA7               	goto	u1201
  2684  06A6  2EA8               	goto	u1200
  2685  06A7                     u1201:	
  2686  06A7  2EAD               	goto	l1561
  2687  06A8                     u1200:	
  2688  06A8                     l1557:	
  2689  06A8  0877               	movf	___lwdiv@divisor,w
  2690  06A9  02F9               	subwf	___lwdiv@dividend,f
  2691  06AA  0878               	movf	___lwdiv@divisor+1,w
  2692  06AB  3BFA               	subwfb	___lwdiv@dividend+1,f
  2693  06AC                     l1559:	
  2694  06AC  1450               	bsf	___lwdiv@quotient,0
  2695  06AD                     l1561:	
  2696  06AD  3001               	movlw	1
  2697  06AE                     u1215:	
  2698  06AE  36F8               	lsrf	___lwdiv@divisor+1,f
  2699  06AF  0CF7               	rrf	___lwdiv@divisor,f
  2700  06B0  0B89               	decfsz	9,f
  2701  06B1  2EAE               	goto	u1215
  2702  06B2                     l1563:	
  2703  06B2  3001               	movlw	1
  2704  06B3  02D2               	subwf	___lwdiv@counter,f
  2705  06B4  1D03               	btfss	3,2
  2706  06B5  2EB7               	goto	u1221
  2707  06B6  2EB8               	goto	u1220
  2708  06B7                     u1221:	
  2709  06B7  2E99               	goto	l1555
  2710  06B8                     u1220:	
  2711  06B8                     l1565:	
  2712  06B8  0851               	movf	___lwdiv@quotient+1,w
  2713  06B9  00F8               	movwf	?___lwdiv+1
  2714  06BA  0850               	movf	___lwdiv@quotient,w
  2715  06BB  00F7               	movwf	?___lwdiv
  2716  06BC                     l649:	
  2717  06BC  0008               	return
  2718  06BD                     __end_of___lwdiv:	
  2719                           
  2720                           	psect	text6
  2721  0FF4                     __ptext6:	
  2722 ;; *************** function _timer_0_enable *****************
  2723 ;; Defined at:
  2724 ;;		line 124 in file "main.c"
  2725 ;; Parameters:    Size  Location     Type
  2726 ;;		None
  2727 ;; Auto vars:     Size  Location     Type
  2728 ;;		None
  2729 ;; Return value:  Size  Location     Type
  2730 ;;                  1    wreg      void 
  2731 ;; Registers used:
  2732 ;;		status,2
  2733 ;; Tracked objects:
  2734 ;;		On entry : 0/0
  2735 ;;		On exit  : 0/0
  2736 ;;		Unchanged: 0/0
  2737 ;; Data sizes:     COMMON   BANK0   BANK1   BANK2
  2738 ;;      Params:         0       0       0       0
  2739 ;;      Locals:         0       0       0       0
  2740 ;;      Temps:          0       0       0       0
  2741 ;;      Totals:         0       0       0       0
  2742 ;;Total ram usage:        0 bytes
  2743 ;; Hardware stack levels used:    1
  2744 ;; Hardware stack levels required when called:    1
  2745 ;; This function calls:
  2746 ;;		Nothing
  2747 ;; This function is called by:
  2748 ;;		_main
  2749 ;; This function uses a non-reentrant model
  2750 ;;
  2751                           
  2752                           
  2753                           ;psect for function _timer_0_enable
  2754  0FF4                     _timer_0_enable:	
  2755  0FF4                     l1821:	
  2756                           ;incstack = 0
  2757                           ; Regs used in _timer_0_enable: [status,2]
  2758                           
  2759                           
  2760                           ;main.c: 125:     TMR0 = 0;
  2761  0FF4  0020               	movlb	0	; select bank0
  2762  0FF5  0195               	clrf	21	;volatile
  2763  0FF6                     l1823:	
  2764                           
  2765                           ;main.c: 126:     INTCONbits.TMR0IF = 0;
  2766  0FF6  110B               	bcf	11,2	;volatile
  2767  0FF7                     l1825:	
  2768                           
  2769                           ;main.c: 127:     INTCONbits.TMR0IE = 1;
  2770  0FF7  168B               	bsf	11,5	;volatile
  2771  0FF8                     l1827:	
  2772                           
  2773                           ;main.c: 128:     INTCONbits.GIE = 1;
  2774  0FF8  178B               	bsf	11,7	;volatile
  2775  0FF9                     l148:	
  2776  0FF9  0008               	return
  2777  0FFA                     __end_of_timer_0_enable:	
  2778                           
  2779                           	psect	text7
  2780  0FEE                     __ptext7:	
  2781 ;; *************** function _timer_0_disable *****************
  2782 ;; Defined at:
  2783 ;;		line 131 in file "main.c"
  2784 ;; Parameters:    Size  Location     Type
  2785 ;;		None
  2786 ;; Auto vars:     Size  Location     Type
  2787 ;;		None
  2788 ;; Return value:  Size  Location     Type
  2789 ;;                  1    wreg      void 
  2790 ;; Registers used:
  2791 ;;		status,2
  2792 ;; Tracked objects:
  2793 ;;		On entry : 0/0
  2794 ;;		On exit  : 0/0
  2795 ;;		Unchanged: 0/0
  2796 ;; Data sizes:     COMMON   BANK0   BANK1   BANK2
  2797 ;;      Params:         0       0       0       0
  2798 ;;      Locals:         0       0       0       0
  2799 ;;      Temps:          0       0       0       0
  2800 ;;      Totals:         0       0       0       0
  2801 ;;Total ram usage:        0 bytes
  2802 ;; Hardware stack levels used:    1
  2803 ;; Hardware stack levels required when called:    1
  2804 ;; This function calls:
  2805 ;;		Nothing
  2806 ;; This function is called by:
  2807 ;;		_main
  2808 ;; This function uses a non-reentrant model
  2809 ;;
  2810                           
  2811                           
  2812                           ;psect for function _timer_0_disable
  2813  0FEE                     _timer_0_disable:	
  2814  0FEE                     l1813:	
  2815                           ;incstack = 0
  2816                           ; Regs used in _timer_0_disable: [status,2]
  2817                           
  2818                           
  2819                           ;main.c: 132:     TMR0 = 0;
  2820  0FEE  0020               	movlb	0	; select bank0
  2821  0FEF  0195               	clrf	21	;volatile
  2822  0FF0                     l1815:	
  2823                           
  2824                           ;main.c: 133:     INTCONbits.TMR0IF = 0;
  2825  0FF0  110B               	bcf	11,2	;volatile
  2826  0FF1                     l1817:	
  2827                           
  2828                           ;main.c: 134:     INTCONbits.TMR0IE = 0;
  2829  0FF1  128B               	bcf	11,5	;volatile
  2830  0FF2                     l1819:	
  2831                           
  2832                           ;main.c: 135:     INTCONbits.GIE = 0;
  2833  0FF2  138B               	bcf	11,7	;volatile
  2834  0FF3                     l151:	
  2835  0FF3  0008               	return
  2836  0FF4                     __end_of_timer_0_disable:	
  2837                           
  2838                           	psect	text8
  2839  07D3                     __ptext8:	
  2840 ;; *************** function _timer_0_config *****************
  2841 ;; Defined at:
  2842 ;;		line 111 in file "main.c"
  2843 ;; Parameters:    Size  Location     Type
  2844 ;;		None
  2845 ;; Auto vars:     Size  Location     Type
  2846 ;;		None
  2847 ;; Return value:  Size  Location     Type
  2848 ;;                  1    wreg      void 
  2849 ;; Registers used:
  2850 ;;		wreg, status,2, status,0
  2851 ;; Tracked objects:
  2852 ;;		On entry : 0/0
  2853 ;;		On exit  : 0/0
  2854 ;;		Unchanged: 0/0
  2855 ;; Data sizes:     COMMON   BANK0   BANK1   BANK2
  2856 ;;      Params:         0       0       0       0
  2857 ;;      Locals:         0       0       0       0
  2858 ;;      Temps:          0       0       0       0
  2859 ;;      Totals:         0       0       0       0
  2860 ;;Total ram usage:        0 bytes
  2861 ;; Hardware stack levels used:    1
  2862 ;; Hardware stack levels required when called:    1
  2863 ;; This function calls:
  2864 ;;		Nothing
  2865 ;; This function is called by:
  2866 ;;		_main
  2867 ;; This function uses a non-reentrant model
  2868 ;;
  2869                           
  2870                           
  2871                           ;psect for function _timer_0_config
  2872  07D3                     _timer_0_config:	
  2873  07D3                     l1683:	
  2874                           ;incstack = 0
  2875                           ; Regs used in _timer_0_config: [wreg+status,2+status,0]
  2876                           
  2877                           
  2878                           ;main.c: 112:     TMR0 = 0;
  2879  07D3  0020               	movlb	0	; select bank0
  2880  07D4  0195               	clrf	21	;volatile
  2881  07D5                     l1685:	
  2882                           
  2883                           ;main.c: 113:     OPTION_REGbits.TMR0CS = 0;
  2884  07D5  0021               	movlb	1	; select bank1
  2885  07D6  1295               	bcf	21,5	;volatile
  2886  07D7                     l1687:	
  2887                           
  2888                           ;main.c: 114:     OPTION_REGbits.PSA = 0;
  2889  07D7  1195               	bcf	21,3	;volatile
  2890  07D8                     l1689:	
  2891                           
  2892                           ;main.c: 115:     OPTION_REGbits.PS = 0b111;
  2893  07D8  3007               	movlw	7
  2894  07D9  0495               	iorwf	21,f	;volatile
  2895  07DA                     l1691:	
  2896                           
  2897                           ;main.c: 116:     OPTION_REGbits.TMR0CS = 0;
  2898  07DA  1295               	bcf	21,5	;volatile
  2899  07DB                     l1693:	
  2900                           
  2901                           ;main.c: 118:     INTCONbits.PEIE = 1;
  2902  07DB  170B               	bsf	11,6	;volatile
  2903  07DC                     l1695:	
  2904                           
  2905                           ;main.c: 119:     INTCONbits.TMR0IF = 0;
  2906  07DC  110B               	bcf	11,2	;volatile
  2907  07DD                     l1697:	
  2908                           
  2909                           ;main.c: 120:     INTCONbits.TMR0IE = 0;
  2910  07DD  128B               	bcf	11,5	;volatile
  2911  07DE                     l1699:	
  2912                           
  2913                           ;main.c: 121:     INTCONbits.GIE = 0;
  2914  07DE  138B               	bcf	11,7	;volatile
  2915  07DF                     l145:	
  2916  07DF  0008               	return
  2917  07E0                     __end_of_timer_0_config:	
  2918                           
  2919                           	psect	text9
  2920  07E9                     __ptext9:	
  2921 ;; *************** function _output_config *****************
  2922 ;; Defined at:
  2923 ;;		line 16 in file "./output.h"
  2924 ;; Parameters:    Size  Location     Type
  2925 ;;		None
  2926 ;; Auto vars:     Size  Location     Type
  2927 ;;		None
  2928 ;; Return value:  Size  Location     Type
  2929 ;;                  1    wreg      void 
  2930 ;; Registers used:
  2931 ;;		None
  2932 ;; Tracked objects:
  2933 ;;		On entry : 0/0
  2934 ;;		On exit  : 0/0
  2935 ;;		Unchanged: 0/0
  2936 ;; Data sizes:     COMMON   BANK0   BANK1   BANK2
  2937 ;;      Params:         0       0       0       0
  2938 ;;      Locals:         0       0       0       0
  2939 ;;      Temps:          0       0       0       0
  2940 ;;      Totals:         0       0       0       0
  2941 ;;Total ram usage:        0 bytes
  2942 ;; Hardware stack levels used:    1
  2943 ;; Hardware stack levels required when called:    1
  2944 ;; This function calls:
  2945 ;;		Nothing
  2946 ;; This function is called by:
  2947 ;;		_main
  2948 ;; This function uses a non-reentrant model
  2949 ;;
  2950                           
  2951                           
  2952                           ;psect for function _output_config
  2953  07E9                     _output_config:	
  2954  07E9                     l1677:	
  2955                           ;incstack = 0
  2956                           ; Regs used in _output_config: []
  2957                           
  2958                           
  2959                           ;./output.h: 17:     LATAbits.LATA0 = 0;
  2960  07E9  0022               	movlb	2	; select bank2
  2961  07EA  100C               	bcf	12,0	;volatile
  2962                           
  2963                           ;./output.h: 18:     LATAbits.LATA4 = 0;
  2964  07EB  120C               	bcf	12,4	;volatile
  2965                           
  2966                           ;./output.h: 19:     TRISAbits.TRISA0 = 0;
  2967  07EC  0021               	movlb	1	; select bank1
  2968  07ED  100C               	bcf	12,0	;volatile
  2969                           
  2970                           ;./output.h: 20:     TRISAbits.TRISA4 = 0;
  2971  07EE  120C               	bcf	12,4	;volatile
  2972  07EF                     l92:	
  2973  07EF  0008               	return
  2974  07F0                     __end_of_output_config:	
  2975                           
  2976                           	psect	text10
  2977  07E0                     __ptext10:	
  2978 ;; *************** function _oscillator_config *****************
  2979 ;; Defined at:
  2980 ;;		line 105 in file "main.c"
  2981 ;; Parameters:    Size  Location     Type
  2982 ;;		None
  2983 ;; Auto vars:     Size  Location     Type
  2984 ;;		None
  2985 ;; Return value:  Size  Location     Type
  2986 ;;                  1    wreg      void 
  2987 ;; Registers used:
  2988 ;;		wreg, status,2, status,0
  2989 ;; Tracked objects:
  2990 ;;		On entry : 0/0
  2991 ;;		On exit  : 0/0
  2992 ;;		Unchanged: 0/0
  2993 ;; Data sizes:     COMMON   BANK0   BANK1   BANK2
  2994 ;;      Params:         0       0       0       0
  2995 ;;      Locals:         0       0       0       0
  2996 ;;      Temps:          0       0       0       0
  2997 ;;      Totals:         0       0       0       0
  2998 ;;Total ram usage:        0 bytes
  2999 ;; Hardware stack levels used:    1
  3000 ;; Hardware stack levels required when called:    1
  3001 ;; This function calls:
  3002 ;;		Nothing
  3003 ;; This function is called by:
  3004 ;;		_main
  3005 ;; This function uses a non-reentrant model
  3006 ;;
  3007                           
  3008                           
  3009                           ;psect for function _oscillator_config
  3010  07E0                     _oscillator_config:	
  3011  07E0                     l1679:	
  3012                           ;incstack = 0
  3013                           ; Regs used in _oscillator_config: [wreg+status,2+status,0]
  3014                           
  3015                           
  3016                           ;main.c: 106:     OSCCONbits.IRCF = 0b1110;
  3017  07E0  0021               	movlb	1	; select bank1
  3018  07E1  0819               	movf	25,w	;volatile
  3019  07E2  3987               	andlw	-121
  3020  07E3  3870               	iorlw	112
  3021  07E4  0099               	movwf	25	;volatile
  3022                           
  3023                           ;main.c: 107:     OSCCONbits.SCS = 0b00;
  3024  07E5  30FC               	movlw	-4
  3025  07E6  0599               	andwf	25,f	;volatile
  3026  07E7                     l1681:	
  3027                           
  3028                           ;main.c: 108:     OSCCONbits.SPLLEN = 1;
  3029  07E7  1799               	bsf	25,7	;volatile
  3030  07E8                     l142:	
  3031  07E8  0008               	return
  3032  07E9                     __end_of_oscillator_config:	
  3033                           
  3034                           	psect	text11
  3035  05F3                     __ptext11:	
  3036 ;; *************** function _max7219_config *****************
  3037 ;; Defined at:
  3038 ;;		line 85 in file "./max7219.h"
  3039 ;; Parameters:    Size  Location     Type
  3040 ;;		None
  3041 ;; Auto vars:     Size  Location     Type
  3042 ;;		None
  3043 ;; Return value:  Size  Location     Type
  3044 ;;                  1    wreg      void 
  3045 ;; Registers used:
  3046 ;;		wreg, status,2, status,0, pclath, cstack
  3047 ;; Tracked objects:
  3048 ;;		On entry : 0/0
  3049 ;;		On exit  : 0/0
  3050 ;;		Unchanged: 0/0
  3051 ;; Data sizes:     COMMON   BANK0   BANK1   BANK2
  3052 ;;      Params:         0       0       0       0
  3053 ;;      Locals:         0       0       0       0
  3054 ;;      Temps:          0       0       0       0
  3055 ;;      Totals:         0       0       0       0
  3056 ;;Total ram usage:        0 bytes
  3057 ;; Hardware stack levels used:    1
  3058 ;; Hardware stack levels required when called:    2
  3059 ;; This function calls:
  3060 ;;		___max7219_write
  3061 ;; This function is called by:
  3062 ;;		_main
  3063 ;; This function uses a non-reentrant model
  3064 ;;
  3065                           
  3066                           
  3067                           ;psect for function _max7219_config
  3068  05F3                     _max7219_config:	
  3069  05F3                     l1591:	
  3070                           ;incstack = 0
  3071                           ; Regs used in _max7219_config: [wreg+status,2+status,0+pclath+cstack]
  3072                           
  3073                           
  3074                           ;./max7219.h: 86:     LATCbits.LATC2 = 1;
  3075  05F3  0022               	movlb	2	; select bank2
  3076  05F4  150E               	bsf	14,2	;volatile
  3077                           
  3078                           ;./max7219.h: 87:     TRISCbits.TRISC1 = 0;
  3079  05F5  0021               	movlb	1	; select bank1
  3080  05F6  108E               	bcf	14,1	;volatile
  3081                           
  3082                           ;./max7219.h: 88:     TRISCbits.TRISC2 = 0;
  3083  05F7  110E               	bcf	14,2	;volatile
  3084                           
  3085                           ;./max7219.h: 89:     TRISCbits.TRISC3 = 0;
  3086  05F8  118E               	bcf	14,3	;volatile
  3087                           
  3088                           ;./max7219.h: 90:     LATCbits.LATC2 = 0;
  3089  05F9  0022               	movlb	2	; select bank2
  3090  05FA  110E               	bcf	14,2	;volatile
  3091  05FB                     l1593:	
  3092                           
  3093                           ;./max7219.h: 91:     __max7219_write(0x09, 0x00);
  3094  05FB  3009               	movlw	9
  3095  05FC  00F1               	movwf	___max7219_write@address
  3096  05FD  3000               	movlw	0
  3097  05FE  00F2               	movwf	___max7219_write@address+1
  3098  05FF  3000               	movlw	0
  3099  0600  00F3               	movwf	___max7219_write@data
  3100  0601  00F4               	movwf	___max7219_write@data+1
  3101  0602  3186  263E  3185   	fcall	___max7219_write
  3102  0605                     l1595:	
  3103                           
  3104                           ;./max7219.h: 92:     LATCbits.LATC2 = 1;
  3105  0605  0022               	movlb	2	; select bank2
  3106  0606  150E               	bsf	14,2	;volatile
  3107  0607                     l1597:	
  3108                           
  3109                           ;./max7219.h: 93:     LATCbits.LATC2 = 0;
  3110  0607  110E               	bcf	14,2	;volatile
  3111                           
  3112                           ;./max7219.h: 94:     __max7219_write(0x0A, 0x00);
  3113  0608  300A               	movlw	10
  3114  0609  00F1               	movwf	___max7219_write@address
  3115  060A  3000               	movlw	0
  3116  060B  00F2               	movwf	___max7219_write@address+1
  3117  060C  3000               	movlw	0
  3118  060D  00F3               	movwf	___max7219_write@data
  3119  060E  00F4               	movwf	___max7219_write@data+1
  3120  060F  3186  263E  3185   	fcall	___max7219_write
  3121  0612                     l1599:	
  3122                           
  3123                           ;./max7219.h: 95:     LATCbits.LATC2 = 1;
  3124  0612  0022               	movlb	2	; select bank2
  3125  0613  150E               	bsf	14,2	;volatile
  3126  0614                     l1601:	
  3127                           
  3128                           ;./max7219.h: 96:     LATCbits.LATC2 = 0;
  3129  0614  110E               	bcf	14,2	;volatile
  3130                           
  3131                           ;./max7219.h: 97:     __max7219_write(0x0B, 0x07);
  3132  0615  300B               	movlw	11
  3133  0616  00F1               	movwf	___max7219_write@address
  3134  0617  3000               	movlw	0
  3135  0618  00F2               	movwf	___max7219_write@address+1
  3136  0619  3007               	movlw	7
  3137  061A  00F3               	movwf	___max7219_write@data
  3138  061B  3000               	movlw	0
  3139  061C  00F4               	movwf	___max7219_write@data+1
  3140  061D  3186  263E  3185   	fcall	___max7219_write
  3141  0620                     l1603:	
  3142                           
  3143                           ;./max7219.h: 98:     LATCbits.LATC2 = 1;
  3144  0620  0022               	movlb	2	; select bank2
  3145  0621  150E               	bsf	14,2	;volatile
  3146  0622                     l1605:	
  3147                           
  3148                           ;./max7219.h: 99:     LATCbits.LATC2 = 0;
  3149  0622  110E               	bcf	14,2	;volatile
  3150                           
  3151                           ;./max7219.h: 100:     __max7219_write(0x0C, 0x01);
  3152  0623  300C               	movlw	12
  3153  0624  00F1               	movwf	___max7219_write@address
  3154  0625  3000               	movlw	0
  3155  0626  00F2               	movwf	___max7219_write@address+1
  3156  0627  3001               	movlw	1
  3157  0628  00F3               	movwf	___max7219_write@data
  3158  0629  3000               	movlw	0
  3159  062A  00F4               	movwf	___max7219_write@data+1
  3160  062B  3186  263E  3185   	fcall	___max7219_write
  3161  062E                     l1607:	
  3162                           
  3163                           ;./max7219.h: 101:     LATCbits.LATC2 = 1;
  3164  062E  0022               	movlb	2	; select bank2
  3165  062F  150E               	bsf	14,2	;volatile
  3166  0630                     l1609:	
  3167                           
  3168                           ;./max7219.h: 102:     LATCbits.LATC2 = 0;
  3169  0630  110E               	bcf	14,2	;volatile
  3170                           
  3171                           ;./max7219.h: 103:     __max7219_write(0x0F, 0x00);
  3172  0631  300F               	movlw	15
  3173  0632  00F1               	movwf	___max7219_write@address
  3174  0633  3000               	movlw	0
  3175  0634  00F2               	movwf	___max7219_write@address+1
  3176  0635  3000               	movlw	0
  3177  0636  00F3               	movwf	___max7219_write@data
  3178  0637  00F4               	movwf	___max7219_write@data+1
  3179  0638  3186  263E  3185   	fcall	___max7219_write
  3180  063B                     l1611:	
  3181                           
  3182                           ;./max7219.h: 104:     LATCbits.LATC2 = 1;
  3183  063B  0022               	movlb	2	; select bank2
  3184  063C  150E               	bsf	14,2	;volatile
  3185  063D                     l50:	
  3186  063D  0008               	return
  3187  063E                     __end_of_max7219_config:	
  3188                           
  3189                           	psect	text12
  3190  078D                     __ptext12:	
  3191 ;; *************** function _max7219_brillo *****************
  3192 ;; Defined at:
  3193 ;;		line 117 in file "./max7219.h"
  3194 ;; Parameters:    Size  Location     Type
  3195 ;;  data            2    0[BANK0 ] unsigned int 
  3196 ;; Auto vars:     Size  Location     Type
  3197 ;;		None
  3198 ;; Return value:  Size  Location     Type
  3199 ;;                  1    wreg      void 
  3200 ;; Registers used:
  3201 ;;		wreg, status,2, status,0, pclath, cstack
  3202 ;; Tracked objects:
  3203 ;;		On entry : 0/0
  3204 ;;		On exit  : 0/0
  3205 ;;		Unchanged: 0/0
  3206 ;; Data sizes:     COMMON   BANK0   BANK1   BANK2
  3207 ;;      Params:         0       2       0       0
  3208 ;;      Locals:         0       0       0       0
  3209 ;;      Temps:          0       0       0       0
  3210 ;;      Totals:         0       2       0       0
  3211 ;;Total ram usage:        2 bytes
  3212 ;; Hardware stack levels used:    1
  3213 ;; Hardware stack levels required when called:    2
  3214 ;; This function calls:
  3215 ;;		___max7219_write
  3216 ;; This function is called by:
  3217 ;;		_main
  3218 ;; This function uses a non-reentrant model
  3219 ;;
  3220                           
  3221                           
  3222                           ;psect for function _max7219_brillo
  3223  078D                     _max7219_brillo:	
  3224  078D                     l1613:	
  3225                           ;incstack = 0
  3226                           ; Regs used in _max7219_brillo: [wreg+status,2+status,0+pclath+cstack]
  3227                           
  3228                           
  3229                           ;./max7219.h: 118:     if (data < 15) {
  3230  078D  3000               	movlw	0
  3231  078E  0020               	movlb	0	; select bank0
  3232  078F  0251               	subwf	max7219_brillo@data+1,w
  3233  0790  300F               	movlw	15
  3234  0791  1903               	skipnz
  3235  0792  0250               	subwf	max7219_brillo@data,w
  3236  0793  1803               	skipnc
  3237  0794  2F96               	goto	u1291
  3238  0795  2F97               	goto	u1290
  3239  0796                     u1291:	
  3240  0796  2FA7               	goto	l62
  3241  0797                     u1290:	
  3242  0797                     l1615:	
  3243                           
  3244                           ;./max7219.h: 119:         LATCbits.LATC2 = 0;
  3245  0797  0022               	movlb	2	; select bank2
  3246  0798  110E               	bcf	14,2	;volatile
  3247  0799                     l1617:	
  3248                           
  3249                           ;./max7219.h: 120:         __max7219_write(0x0A, data);
  3250  0799  300A               	movlw	10
  3251  079A  00F1               	movwf	___max7219_write@address
  3252  079B  3000               	movlw	0
  3253  079C  00F2               	movwf	___max7219_write@address+1
  3254  079D  0020               	movlb	0	; select bank0
  3255  079E  0851               	movf	max7219_brillo@data+1,w
  3256  079F  00F4               	movwf	___max7219_write@data+1
  3257  07A0  0850               	movf	max7219_brillo@data,w
  3258  07A1  00F3               	movwf	___max7219_write@data
  3259  07A2  3186  263E  3187   	fcall	___max7219_write
  3260  07A5                     l1619:	
  3261                           
  3262                           ;./max7219.h: 121:         LATCbits.LATC2 = 1;
  3263  07A5  0022               	movlb	2	; select bank2
  3264  07A6  150E               	bsf	14,2	;volatile
  3265  07A7                     l62:	
  3266  07A7  0008               	return
  3267  07A8                     __end_of_max7219_brillo:	
  3268                           
  3269                           	psect	text13
  3270  071B                     __ptext13:	
  3271 ;; *************** function _input_pulsador_subir *****************
  3272 ;; Defined at:
  3273 ;;		line 27 in file "./input.h"
  3274 ;; Parameters:    Size  Location     Type
  3275 ;;		None
  3276 ;; Auto vars:     Size  Location     Type
  3277 ;;		None
  3278 ;; Return value:  Size  Location     Type
  3279 ;;                  2    1[COMMON] unsigned int 
  3280 ;; Registers used:
  3281 ;;		wreg, status,2
  3282 ;; Tracked objects:
  3283 ;;		On entry : 0/0
  3284 ;;		On exit  : 0/0
  3285 ;;		Unchanged: 0/0
  3286 ;; Data sizes:     COMMON   BANK0   BANK1   BANK2
  3287 ;;      Params:         2       0       0       0
  3288 ;;      Locals:         0       0       0       0
  3289 ;;      Temps:          1       0       0       0
  3290 ;;      Totals:         3       0       0       0
  3291 ;;Total ram usage:        3 bytes
  3292 ;; Hardware stack levels used:    1
  3293 ;; Hardware stack levels required when called:    1
  3294 ;; This function calls:
  3295 ;;		Nothing
  3296 ;; This function is called by:
  3297 ;;		_main
  3298 ;; This function uses a non-reentrant model
  3299 ;;
  3300                           
  3301                           
  3302                           ;psect for function _input_pulsador_subir
  3303  071B                     _input_pulsador_subir:	
  3304  071B                     l1623:	
  3305                           ;incstack = 0
  3306                           ; Regs used in _input_pulsador_subir: [wreg+status,2]
  3307                           
  3308                           
  3309                           ;./input.h: 28:     static int contador = 0;;./input.h: 29:     if (PORTAbits.RA3) {
  3310  071B  0020               	movlb	0	; select bank0
  3311  071C  1D8C               	btfss	12,3	;volatile
  3312  071D  2F1F               	goto	u1301
  3313  071E  2F20               	goto	u1300
  3314  071F                     u1301:	
  3315  071F  2F39               	goto	l1633
  3316  0720                     u1300:	
  3317  0720                     l1625:	
  3318                           
  3319                           ;./input.h: 30:         if (++contador > 20000) {
  3320  0720  3001               	movlw	1
  3321  0721  07B8               	addwf	input_pulsador_subir@contador,f
  3322  0722  3000               	movlw	0
  3323  0723  3DB9               	addwfc	input_pulsador_subir@contador+1,f
  3324  0724  0839               	movf	input_pulsador_subir@contador+1,w
  3325  0725  3A80               	xorlw	128
  3326  0726  00F3               	movwf	??_input_pulsador_subir
  3327  0727  30CE               	movlw	206
  3328  0728  0273               	subwf	??_input_pulsador_subir,w
  3329  0729  1D03               	skipz
  3330  072A  2F2D               	goto	u1315
  3331  072B  3021               	movlw	33
  3332  072C  0238               	subwf	input_pulsador_subir@contador,w
  3333  072D                     u1315:	
  3334  072D  1C03               	skipc
  3335  072E  2F30               	goto	u1311
  3336  072F  2F31               	goto	u1310
  3337  0730                     u1311:	
  3338  0730  2F3E               	goto	l1637
  3339  0731                     u1310:	
  3340  0731                     l1627:	
  3341                           
  3342                           ;./input.h: 31:             contador = 0;
  3343  0731  0020               	movlb	0	; select bank0
  3344  0732  01B8               	clrf	input_pulsador_subir@contador
  3345  0733  01B9               	clrf	input_pulsador_subir@contador+1
  3346  0734                     l1629:	
  3347                           
  3348                           ;./input.h: 32:             return 1;
  3349  0734  3001               	movlw	1
  3350  0735  00F1               	movwf	?_input_pulsador_subir
  3351  0736  3000               	movlw	0
  3352  0737  00F2               	movwf	?_input_pulsador_subir+1
  3353  0738  2F40               	goto	l72
  3354  0739                     l1633:	
  3355                           
  3356                           ;./input.h: 35:         contador = 0;
  3357  0739  01B8               	clrf	input_pulsador_subir@contador
  3358  073A  01B9               	clrf	input_pulsador_subir@contador+1
  3359                           
  3360                           ;./input.h: 36:         return 0;
  3361  073B  01F1               	clrf	?_input_pulsador_subir
  3362  073C  01F2               	clrf	?_input_pulsador_subir+1
  3363  073D  2F40               	goto	l72
  3364  073E                     l1637:	
  3365                           
  3366                           ;./input.h: 38:     return 0;
  3367  073E  01F1               	clrf	?_input_pulsador_subir
  3368  073F  01F2               	clrf	?_input_pulsador_subir+1
  3369  0740                     l72:	
  3370  0740  0008               	return
  3371  0741                     __end_of_input_pulsador_subir:	
  3372                           
  3373                           	psect	text14
  3374  0741                     __ptext14:	
  3375 ;; *************** function _input_pulsador_ok *****************
  3376 ;; Defined at:
  3377 ;;		line 55 in file "./input.h"
  3378 ;; Parameters:    Size  Location     Type
  3379 ;;		None
  3380 ;; Auto vars:     Size  Location     Type
  3381 ;;		None
  3382 ;; Return value:  Size  Location     Type
  3383 ;;                  2    1[COMMON] unsigned int 
  3384 ;; Registers used:
  3385 ;;		wreg, status,2
  3386 ;; Tracked objects:
  3387 ;;		On entry : 0/0
  3388 ;;		On exit  : 0/0
  3389 ;;		Unchanged: 0/0
  3390 ;; Data sizes:     COMMON   BANK0   BANK1   BANK2
  3391 ;;      Params:         2       0       0       0
  3392 ;;      Locals:         0       0       0       0
  3393 ;;      Temps:          1       0       0       0
  3394 ;;      Totals:         3       0       0       0
  3395 ;;Total ram usage:        3 bytes
  3396 ;; Hardware stack levels used:    1
  3397 ;; Hardware stack levels required when called:    1
  3398 ;; This function calls:
  3399 ;;		Nothing
  3400 ;; This function is called by:
  3401 ;;		_main
  3402 ;; This function uses a non-reentrant model
  3403 ;;
  3404                           
  3405                           
  3406                           ;psect for function _input_pulsador_ok
  3407  0741                     _input_pulsador_ok:	
  3408  0741                     l1659:	
  3409                           ;incstack = 0
  3410                           ; Regs used in _input_pulsador_ok: [wreg+status,2]
  3411                           
  3412                           
  3413                           ;./input.h: 56:     static int contador = 0;;./input.h: 57:     if (PORTCbits.RC4) {
  3414  0741  0020               	movlb	0	; select bank0
  3415  0742  1E0E               	btfss	14,4	;volatile
  3416  0743  2F45               	goto	u1341
  3417  0744  2F46               	goto	u1340
  3418  0745                     u1341:	
  3419  0745  2F5F               	goto	l1669
  3420  0746                     u1340:	
  3421  0746                     l1661:	
  3422                           
  3423                           ;./input.h: 58:         if (++contador > 20000) {
  3424  0746  3001               	movlw	1
  3425  0747  07B4               	addwf	input_pulsador_ok@contador,f
  3426  0748  3000               	movlw	0
  3427  0749  3DB5               	addwfc	input_pulsador_ok@contador+1,f
  3428  074A  0835               	movf	input_pulsador_ok@contador+1,w
  3429  074B  3A80               	xorlw	128
  3430  074C  00F3               	movwf	??_input_pulsador_ok
  3431  074D  30CE               	movlw	206
  3432  074E  0273               	subwf	??_input_pulsador_ok,w
  3433  074F  1D03               	skipz
  3434  0750  2F53               	goto	u1355
  3435  0751  3021               	movlw	33
  3436  0752  0234               	subwf	input_pulsador_ok@contador,w
  3437  0753                     u1355:	
  3438  0753  1C03               	skipc
  3439  0754  2F56               	goto	u1351
  3440  0755  2F57               	goto	u1350
  3441  0756                     u1351:	
  3442  0756  2F64               	goto	l1673
  3443  0757                     u1350:	
  3444  0757                     l1663:	
  3445                           
  3446                           ;./input.h: 59:             contador = 0;
  3447  0757  0020               	movlb	0	; select bank0
  3448  0758  01B4               	clrf	input_pulsador_ok@contador
  3449  0759  01B5               	clrf	input_pulsador_ok@contador+1
  3450  075A                     l1665:	
  3451                           
  3452                           ;./input.h: 60:             return 1;
  3453  075A  3001               	movlw	1
  3454  075B  00F1               	movwf	?_input_pulsador_ok
  3455  075C  3000               	movlw	0
  3456  075D  00F2               	movwf	?_input_pulsador_ok+1
  3457  075E  2F66               	goto	l88
  3458  075F                     l1669:	
  3459                           
  3460                           ;./input.h: 63:         contador = 0;
  3461  075F  01B4               	clrf	input_pulsador_ok@contador
  3462  0760  01B5               	clrf	input_pulsador_ok@contador+1
  3463                           
  3464                           ;./input.h: 64:         return 0;
  3465  0761  01F1               	clrf	?_input_pulsador_ok
  3466  0762  01F2               	clrf	?_input_pulsador_ok+1
  3467  0763  2F66               	goto	l88
  3468  0764                     l1673:	
  3469                           
  3470                           ;./input.h: 66:     return 0;
  3471  0764  01F1               	clrf	?_input_pulsador_ok
  3472  0765  01F2               	clrf	?_input_pulsador_ok+1
  3473  0766                     l88:	
  3474  0766  0008               	return
  3475  0767                     __end_of_input_pulsador_ok:	
  3476                           
  3477                           	psect	text15
  3478  0767                     __ptext15:	
  3479 ;; *************** function _input_pulsador_bajar *****************
  3480 ;; Defined at:
  3481 ;;		line 41 in file "./input.h"
  3482 ;; Parameters:    Size  Location     Type
  3483 ;;		None
  3484 ;; Auto vars:     Size  Location     Type
  3485 ;;		None
  3486 ;; Return value:  Size  Location     Type
  3487 ;;                  2    1[COMMON] unsigned int 
  3488 ;; Registers used:
  3489 ;;		wreg, status,2
  3490 ;; Tracked objects:
  3491 ;;		On entry : 0/0
  3492 ;;		On exit  : 0/0
  3493 ;;		Unchanged: 0/0
  3494 ;; Data sizes:     COMMON   BANK0   BANK1   BANK2
  3495 ;;      Params:         2       0       0       0
  3496 ;;      Locals:         0       0       0       0
  3497 ;;      Temps:          1       0       0       0
  3498 ;;      Totals:         3       0       0       0
  3499 ;;Total ram usage:        3 bytes
  3500 ;; Hardware stack levels used:    1
  3501 ;; Hardware stack levels required when called:    1
  3502 ;; This function calls:
  3503 ;;		Nothing
  3504 ;; This function is called by:
  3505 ;;		_main
  3506 ;; This function uses a non-reentrant model
  3507 ;;
  3508                           
  3509                           
  3510                           ;psect for function _input_pulsador_bajar
  3511  0767                     _input_pulsador_bajar:	
  3512  0767                     l1641:	
  3513                           ;incstack = 0
  3514                           ; Regs used in _input_pulsador_bajar: [wreg+status,2]
  3515                           
  3516                           
  3517                           ;./input.h: 42:     static int contador = 0;;./input.h: 43:     if (PORTCbits.RC5) {
  3518  0767  0020               	movlb	0	; select bank0
  3519  0768  1E8E               	btfss	14,5	;volatile
  3520  0769  2F6B               	goto	u1321
  3521  076A  2F6C               	goto	u1320
  3522  076B                     u1321:	
  3523  076B  2F85               	goto	l1651
  3524  076C                     u1320:	
  3525  076C                     l1643:	
  3526                           
  3527                           ;./input.h: 44:         if (++contador > 20000) {
  3528  076C  3001               	movlw	1
  3529  076D  07B6               	addwf	input_pulsador_bajar@contador,f
  3530  076E  3000               	movlw	0
  3531  076F  3DB7               	addwfc	input_pulsador_bajar@contador+1,f
  3532  0770  0837               	movf	input_pulsador_bajar@contador+1,w
  3533  0771  3A80               	xorlw	128
  3534  0772  00F3               	movwf	??_input_pulsador_bajar
  3535  0773  30CE               	movlw	206
  3536  0774  0273               	subwf	??_input_pulsador_bajar,w
  3537  0775  1D03               	skipz
  3538  0776  2F79               	goto	u1335
  3539  0777  3021               	movlw	33
  3540  0778  0236               	subwf	input_pulsador_bajar@contador,w
  3541  0779                     u1335:	
  3542  0779  1C03               	skipc
  3543  077A  2F7C               	goto	u1331
  3544  077B  2F7D               	goto	u1330
  3545  077C                     u1331:	
  3546  077C  2F8A               	goto	l1655
  3547  077D                     u1330:	
  3548  077D                     l1645:	
  3549                           
  3550                           ;./input.h: 45:             contador = 0;
  3551  077D  0020               	movlb	0	; select bank0
  3552  077E  01B6               	clrf	input_pulsador_bajar@contador
  3553  077F  01B7               	clrf	input_pulsador_bajar@contador+1
  3554  0780                     l1647:	
  3555                           
  3556                           ;./input.h: 46:             return 1;
  3557  0780  3001               	movlw	1
  3558  0781  00F1               	movwf	?_input_pulsador_bajar
  3559  0782  3000               	movlw	0
  3560  0783  00F2               	movwf	?_input_pulsador_bajar+1
  3561  0784  2F8C               	goto	l80
  3562  0785                     l1651:	
  3563                           
  3564                           ;./input.h: 49:         contador = 0;
  3565  0785  01B6               	clrf	input_pulsador_bajar@contador
  3566  0786  01B7               	clrf	input_pulsador_bajar@contador+1
  3567                           
  3568                           ;./input.h: 50:         return 0;
  3569  0787  01F1               	clrf	?_input_pulsador_bajar
  3570  0788  01F2               	clrf	?_input_pulsador_bajar+1
  3571  0789  2F8C               	goto	l80
  3572  078A                     l1655:	
  3573                           
  3574                           ;./input.h: 52:     return 0;
  3575  078A  01F1               	clrf	?_input_pulsador_bajar
  3576  078B  01F2               	clrf	?_input_pulsador_bajar+1
  3577  078C                     l80:	
  3578  078C  0008               	return
  3579  078D                     __end_of_input_pulsador_bajar:	
  3580                           
  3581                           	psect	text16
  3582  0FE8                     __ptext16:	
  3583 ;; *************** function _input_config *****************
  3584 ;; Defined at:
  3585 ;;		line 20 in file "./input.h"
  3586 ;; Parameters:    Size  Location     Type
  3587 ;;		None
  3588 ;; Auto vars:     Size  Location     Type
  3589 ;;		None
  3590 ;; Return value:  Size  Location     Type
  3591 ;;                  1    wreg      void 
  3592 ;; Registers used:
  3593 ;;		None
  3594 ;; Tracked objects:
  3595 ;;		On entry : 0/0
  3596 ;;		On exit  : 0/0
  3597 ;;		Unchanged: 0/0
  3598 ;; Data sizes:     COMMON   BANK0   BANK1   BANK2
  3599 ;;      Params:         0       0       0       0
  3600 ;;      Locals:         0       0       0       0
  3601 ;;      Temps:          0       0       0       0
  3602 ;;      Totals:         0       0       0       0
  3603 ;;Total ram usage:        0 bytes
  3604 ;; Hardware stack levels used:    1
  3605 ;; Hardware stack levels required when called:    1
  3606 ;; This function calls:
  3607 ;;		Nothing
  3608 ;; This function is called by:
  3609 ;;		_main
  3610 ;; This function uses a non-reentrant model
  3611 ;;
  3612                           
  3613                           
  3614                           ;psect for function _input_config
  3615  0FE8                     _input_config:	
  3616  0FE8                     l1621:	
  3617                           ;incstack = 0
  3618                           ; Regs used in _input_config: []
  3619                           
  3620                           
  3621                           ;./input.h: 21:     TRISAbits.TRISA5 = 1;
  3622  0FE8  0021               	movlb	1	; select bank1
  3623  0FE9  168C               	bsf	12,5	;volatile
  3624                           
  3625                           ;./input.h: 22:     TRISAbits.TRISA3 = 1;
  3626  0FEA  158C               	bsf	12,3	;volatile
  3627                           
  3628                           ;./input.h: 23:     TRISCbits.TRISC5 = 1;
  3629  0FEB  168E               	bsf	14,5	;volatile
  3630                           
  3631                           ;./input.h: 24:     TRISCbits.TRISC4 = 1;
  3632  0FEC  160E               	bsf	14,4	;volatile
  3633  0FED                     l65:	
  3634  0FED  0008               	return
  3635  0FEE                     __end_of_input_config:	
  3636                           
  3637                           	psect	text17
  3638  03F8                     __ptext17:	
  3639 ;; *************** function _display_init *****************
  3640 ;; Defined at:
  3641 ;;		line 138 in file "main.c"
  3642 ;; Parameters:    Size  Location     Type
  3643 ;;		None
  3644 ;; Auto vars:     Size  Location     Type
  3645 ;;  j               2   12[BANK0 ] int 
  3646 ;;  i               2   10[BANK0 ] int 
  3647 ;; Return value:  Size  Location     Type
  3648 ;;                  1    wreg      void 
  3649 ;; Registers used:
  3650 ;;		wreg, fsr1l, fsr1h, status,2, status,0, pclath, cstack
  3651 ;; Tracked objects:
  3652 ;;		On entry : 0/0
  3653 ;;		On exit  : 0/0
  3654 ;;		Unchanged: 0/0
  3655 ;; Data sizes:     COMMON   BANK0   BANK1   BANK2
  3656 ;;      Params:         0       0       0       0
  3657 ;;      Locals:         0       4       0       0
  3658 ;;      Temps:          0       1       0       0
  3659 ;;      Totals:         0       5       0       0
  3660 ;;Total ram usage:        5 bytes
  3661 ;; Hardware stack levels used:    1
  3662 ;; Hardware stack levels required when called:    3
  3663 ;; This function calls:
  3664 ;;		___awdiv
  3665 ;;		___awmod
  3666 ;;		_max7219_writeChar
  3667 ;;		_output_relay
  3668 ;; This function is called by:
  3669 ;;		_main
  3670 ;; This function uses a non-reentrant model
  3671 ;;
  3672                           
  3673                           
  3674                           ;psect for function _display_init
  3675  03F8                     _display_init:	
  3676  03F8                     l1767:	
  3677                           ;incstack = 0
  3678                           ; Regs used in _display_init: [wreg+fsr1l+fsr1h+status,2+status,0+pclath+cstack]
  3679                           
  3680  03F8  0020               	movlb	0	; select bank0
  3681  03F9  01DC               	clrf	display_init@j
  3682  03FA  01DD               	clrf	display_init@j+1
  3683  03FB                     l1769:	
  3684                           
  3685                           ;main.c: 140:     for (i = 10; i > 0; i--) {
  3686  03FB  300A               	movlw	10
  3687  03FC  00DA               	movwf	display_init@i
  3688  03FD  3000               	movlw	0
  3689  03FE  00DB               	movwf	display_init@i+1
  3690  03FF                     l1775:	
  3691                           
  3692                           ;main.c: 141:         for (j = 1; j < 9; j++) {
  3693  03FF  3001               	movlw	1
  3694  0400  0020               	movlb	0	; select bank0
  3695  0401  00DC               	movwf	display_init@j
  3696  0402  3000               	movlw	0
  3697  0403  00DD               	movwf	display_init@j+1
  3698  0404                     l1779:	
  3699                           
  3700                           ;main.c: 142:             max7219_writeChar(j, i - 1);
  3701  0404  0020               	movlb	0	; select bank0
  3702  0405  085D               	movf	display_init@j+1,w
  3703  0406  00D4               	movwf	max7219_writeChar@pos+1
  3704  0407  085C               	movf	display_init@j,w
  3705  0408  00D3               	movwf	max7219_writeChar@pos
  3706  0409  085A               	movf	display_init@i,w
  3707  040A  3EFF               	addlw	255
  3708  040B  00D5               	movwf	max7219_writeChar@data
  3709  040C  30FF               	movlw	255
  3710  040D  3D5B               	addwfc	display_init@i+1,w
  3711  040E  00D6               	movwf	max7219_writeChar@data+1
  3712  040F  3185  2546  3183   	fcall	_max7219_writeChar
  3713  0412                     l1781:	
  3714                           
  3715                           ;main.c: 143:         }
  3716  0412  3001               	movlw	1
  3717  0413  0020               	movlb	0	; select bank0
  3718  0414  07DC               	addwf	display_init@j,f
  3719  0415  3000               	movlw	0
  3720  0416  3DDD               	addwfc	display_init@j+1,f
  3721  0417                     l1783:	
  3722  0417  085D               	movf	display_init@j+1,w
  3723  0418  3A80               	xorlw	128
  3724  0419  00D9               	movwf	??_display_init
  3725  041A  3080               	movlw	128
  3726  041B  0259               	subwf	??_display_init,w
  3727  041C  1D03               	skipz
  3728  041D  2C20               	goto	u1415
  3729  041E  3009               	movlw	9
  3730  041F  025C               	subwf	display_init@j,w
  3731  0420                     u1415:	
  3732  0420  1C03               	skipc
  3733  0421  2C23               	goto	u1411
  3734  0422  2C24               	goto	u1410
  3735  0423                     u1411:	
  3736  0423  2C04               	goto	l1779
  3737  0424                     u1410:	
  3738  0424                     l1785:	
  3739                           
  3740                           ;main.c: 144:         for (k = 0; k < 200000; k++);
  3741  0424  3000               	movlw	0
  3742  0425  0020               	movlb	0	; select bank0
  3743  0426  00A3               	movwf	_k+3
  3744  0427  3000               	movlw	0
  3745  0428  00A2               	movwf	_k+2
  3746  0429  3000               	movlw	0
  3747  042A  00A1               	movwf	_k+1
  3748  042B  3000               	movlw	0
  3749  042C  00A0               	movwf	_k
  3750  042D                     l1787:	
  3751  042D  1BA3               	btfsc	_k+3,7
  3752  042E  2C3B               	goto	u1421
  3753  042F  0823               	movf	_k+3,w
  3754  0430  1D03               	btfss	3,2
  3755  0431  2C3C               	goto	u1420
  3756  0432  3040               	movlw	64
  3757  0433  0220               	subwf	_k,w
  3758  0434  300D               	movlw	13
  3759  0435  3B21               	subwfb	_k+1,w
  3760  0436  3003               	movlw	3
  3761  0437  3B22               	subwfb	_k+2,w
  3762  0438  1C03               	btfss	3,0
  3763  0439  2C3B               	goto	u1421
  3764  043A  2C3C               	goto	u1420
  3765  043B                     u1421:	
  3766  043B  2C3D               	goto	l1791
  3767  043C                     u1420:	
  3768  043C  2C46               	goto	l1795
  3769  043D                     l1791:	
  3770  043D  3001               	movlw	1
  3771  043E  07A0               	addwf	_k,f
  3772  043F  3000               	movlw	0
  3773  0440  3DA1               	addwfc	_k+1,f
  3774  0441  3000               	movlw	0
  3775  0442  3DA2               	addwfc	_k+2,f
  3776  0443  3000               	movlw	0
  3777  0444  3DA3               	addwfc	_k+3,f
  3778  0445  2C2D               	goto	l1787
  3779  0446                     l1795:	
  3780                           
  3781                           ;main.c: 145:     }
  3782  0446  30FF               	movlw	255
  3783  0447  07DA               	addwf	display_init@i,f
  3784  0448  30FF               	movlw	255
  3785  0449  3DDB               	addwfc	display_init@i+1,f
  3786  044A  085B               	movf	display_init@i+1,w
  3787  044B  3A80               	xorlw	128
  3788  044C  00D9               	movwf	??_display_init
  3789  044D  3080               	movlw	128
  3790  044E  0259               	subwf	??_display_init,w
  3791  044F  1D03               	skipz
  3792  0450  2C53               	goto	u1435
  3793  0451  3001               	movlw	1
  3794  0452  025A               	subwf	display_init@i,w
  3795  0453                     u1435:	
  3796  0453  1803               	skipnc
  3797  0454  2C56               	goto	u1431
  3798  0455  2C57               	goto	u1430
  3799  0456                     u1431:	
  3800  0456  2BFF               	goto	l1775
  3801  0457                     u1430:	
  3802  0457                     l1797:	
  3803                           
  3804                           ;main.c: 146:     max7219_writeChar(1, minutos_set / 10);
  3805  0457  3001               	movlw	1
  3806  0458  0020               	movlb	0	; select bank0
  3807  0459  00D3               	movwf	max7219_writeChar@pos
  3808  045A  3000               	movlw	0
  3809  045B  00D4               	movwf	max7219_writeChar@pos+1
  3810  045C  300A               	movlw	10
  3811  045D  00F1               	movwf	___awdiv@divisor
  3812  045E  3000               	movlw	0
  3813  045F  00F2               	movwf	___awdiv@divisor+1
  3814  0460  0833               	movf	_minutos_set+1,w
  3815  0461  00F4               	movwf	___awdiv@dividend+1
  3816  0462  0832               	movf	_minutos_set,w
  3817  0463  00F3               	movwf	___awdiv@dividend
  3818  0464  3184  24E7  3183   	fcall	___awdiv
  3819  0467  0872               	movf	?___awdiv+1,w
  3820  0468  0020               	movlb	0	; select bank0
  3821  0469  00D6               	movwf	max7219_writeChar@data+1
  3822  046A  0871               	movf	?___awdiv,w
  3823  046B  00D5               	movwf	max7219_writeChar@data
  3824  046C  3185  2546  3183   	fcall	_max7219_writeChar
  3825                           
  3826                           ;main.c: 147:     max7219_writeChar(5, minutos_set % 10);
  3827  046F  3005               	movlw	5
  3828  0470  0020               	movlb	0	; select bank0
  3829  0471  00D3               	movwf	max7219_writeChar@pos
  3830  0472  3000               	movlw	0
  3831  0473  00D4               	movwf	max7219_writeChar@pos+1
  3832  0474  300A               	movlw	10
  3833  0475  00F1               	movwf	___awmod@divisor
  3834  0476  3000               	movlw	0
  3835  0477  00F2               	movwf	___awmod@divisor+1
  3836  0478  0833               	movf	_minutos_set+1,w
  3837  0479  00F4               	movwf	___awmod@dividend+1
  3838  047A  0832               	movf	_minutos_set,w
  3839  047B  00F3               	movwf	___awmod@dividend
  3840  047C  3185  25A0  3183   	fcall	___awmod
  3841  047F  0872               	movf	?___awmod+1,w
  3842  0480  0020               	movlb	0	; select bank0
  3843  0481  00D6               	movwf	max7219_writeChar@data+1
  3844  0482  0871               	movf	?___awmod,w
  3845  0483  00D5               	movwf	max7219_writeChar@data
  3846  0484  3185  2546  3183   	fcall	_max7219_writeChar
  3847                           
  3848                           ;main.c: 148:     max7219_writeChar(7, segundos_set / 10);
  3849  0487  3007               	movlw	7
  3850  0488  0020               	movlb	0	; select bank0
  3851  0489  00D3               	movwf	max7219_writeChar@pos
  3852  048A  3000               	movlw	0
  3853  048B  00D4               	movwf	max7219_writeChar@pos+1
  3854  048C  300A               	movlw	10
  3855  048D  00F1               	movwf	___awdiv@divisor
  3856  048E  3000               	movlw	0
  3857  048F  00F2               	movwf	___awdiv@divisor+1
  3858  0490  0831               	movf	_segundos_set+1,w
  3859  0491  00F4               	movwf	___awdiv@dividend+1
  3860  0492  0830               	movf	_segundos_set,w
  3861  0493  00F3               	movwf	___awdiv@dividend
  3862  0494  3184  24E7  3183   	fcall	___awdiv
  3863  0497  0872               	movf	?___awdiv+1,w
  3864  0498  0020               	movlb	0	; select bank0
  3865  0499  00D6               	movwf	max7219_writeChar@data+1
  3866  049A  0871               	movf	?___awdiv,w
  3867  049B  00D5               	movwf	max7219_writeChar@data
  3868  049C  3185  2546  3183   	fcall	_max7219_writeChar
  3869                           
  3870                           ;main.c: 149:     max7219_writeChar(3, segundos_set % 10);
  3871  049F  3003               	movlw	3
  3872  04A0  0020               	movlb	0	; select bank0
  3873  04A1  00D3               	movwf	max7219_writeChar@pos
  3874  04A2  3000               	movlw	0
  3875  04A3  00D4               	movwf	max7219_writeChar@pos+1
  3876  04A4  300A               	movlw	10
  3877  04A5  00F1               	movwf	___awmod@divisor
  3878  04A6  3000               	movlw	0
  3879  04A7  00F2               	movwf	___awmod@divisor+1
  3880  04A8  0831               	movf	_segundos_set+1,w
  3881  04A9  00F4               	movwf	___awmod@dividend+1
  3882  04AA  0830               	movf	_segundos_set,w
  3883  04AB  00F3               	movwf	___awmod@dividend
  3884  04AC  3185  25A0  3183   	fcall	___awmod
  3885  04AF  0872               	movf	?___awmod+1,w
  3886  04B0  0020               	movlb	0	; select bank0
  3887  04B1  00D6               	movwf	max7219_writeChar@data+1
  3888  04B2  0871               	movf	?___awmod,w
  3889  04B3  00D5               	movwf	max7219_writeChar@data
  3890  04B4  3185  2546  3183   	fcall	_max7219_writeChar
  3891  04B7                     l1799:	
  3892                           
  3893                           ;main.c: 150:     output_relay(1);
  3894  04B7  3001               	movlw	1
  3895  04B8  00F1               	movwf	output_relay@d
  3896  04B9  3000               	movlw	0
  3897  04BA  00F2               	movwf	output_relay@d+1
  3898  04BB  3187  27F0  3183   	fcall	_output_relay
  3899  04BE                     l1801:	
  3900                           
  3901                           ;main.c: 151:     for (k = 0; k < 100000; k++);
  3902  04BE  3000               	movlw	0
  3903  04BF  0020               	movlb	0	; select bank0
  3904  04C0  00A3               	movwf	_k+3
  3905  04C1  3000               	movlw	0
  3906  04C2  00A2               	movwf	_k+2
  3907  04C3  3000               	movlw	0
  3908  04C4  00A1               	movwf	_k+1
  3909  04C5  3000               	movlw	0
  3910  04C6  00A0               	movwf	_k
  3911  04C7                     l1803:	
  3912  04C7  1BA3               	btfsc	_k+3,7
  3913  04C8  2CD5               	goto	u1441
  3914  04C9  0823               	movf	_k+3,w
  3915  04CA  1D03               	btfss	3,2
  3916  04CB  2CD6               	goto	u1440
  3917  04CC  30A0               	movlw	160
  3918  04CD  0220               	subwf	_k,w
  3919  04CE  3086               	movlw	134
  3920  04CF  3B21               	subwfb	_k+1,w
  3921  04D0  3001               	movlw	1
  3922  04D1  3B22               	subwfb	_k+2,w
  3923  04D2  1C03               	btfss	3,0
  3924  04D3  2CD5               	goto	u1441
  3925  04D4  2CD6               	goto	u1440
  3926  04D5                     u1441:	
  3927  04D5  2CD7               	goto	l1807
  3928  04D6                     u1440:	
  3929  04D6  2CE0               	goto	l1811
  3930  04D7                     l1807:	
  3931  04D7  3001               	movlw	1
  3932  04D8  07A0               	addwf	_k,f
  3933  04D9  3000               	movlw	0
  3934  04DA  3DA1               	addwfc	_k+1,f
  3935  04DB  3000               	movlw	0
  3936  04DC  3DA2               	addwfc	_k+2,f
  3937  04DD  3000               	movlw	0
  3938  04DE  3DA3               	addwfc	_k+3,f
  3939  04DF  2CC7               	goto	l1803
  3940  04E0                     l1811:	
  3941                           
  3942                           ;main.c: 152:     output_relay(0);
  3943  04E0  3000               	movlw	0
  3944  04E1  00F1               	movwf	output_relay@d
  3945  04E2  00F2               	movwf	output_relay@d+1
  3946  04E3  3187  27F0  3183   	fcall	_output_relay
  3947  04E6                     l162:	
  3948  04E6  0008               	return
  3949  04E7                     __end_of_display_init:	
  3950                           
  3951                           	psect	text18
  3952  07F0                     __ptext18:	
  3953 ;; *************** function _output_relay *****************
  3954 ;; Defined at:
  3955 ;;		line 27 in file "./output.h"
  3956 ;; Parameters:    Size  Location     Type
  3957 ;;  d               2    1[COMMON] int 
  3958 ;; Auto vars:     Size  Location     Type
  3959 ;;		None
  3960 ;; Return value:  Size  Location     Type
  3961 ;;                  1    wreg      void 
  3962 ;; Registers used:
  3963 ;;		wreg, status,0
  3964 ;; Tracked objects:
  3965 ;;		On entry : 0/0
  3966 ;;		On exit  : 0/0
  3967 ;;		Unchanged: 0/0
  3968 ;; Data sizes:     COMMON   BANK0   BANK1   BANK2
  3969 ;;      Params:         2       0       0       0
  3970 ;;      Locals:         0       0       0       0
  3971 ;;      Temps:          0       0       0       0
  3972 ;;      Totals:         2       0       0       0
  3973 ;;Total ram usage:        2 bytes
  3974 ;; Hardware stack levels used:    1
  3975 ;; Hardware stack levels required when called:    1
  3976 ;; This function calls:
  3977 ;;		Nothing
  3978 ;; This function is called by:
  3979 ;;		_main
  3980 ;;		_display_init
  3981 ;; This function uses a non-reentrant model
  3982 ;;
  3983                           
  3984                           
  3985                           ;psect for function _output_relay
  3986  07F0                     _output_relay:	
  3987  07F0                     l1435:	
  3988                           ;incstack = 0
  3989                           ; Regs used in _output_relay: [wreg+status,0]
  3990                           
  3991                           
  3992                           ;./output.h: 28:     LATAbits.LATA4 = d;
  3993  07F0  0C71               	rrf	output_relay@d,w
  3994  07F1  0022               	movlb	2	; select bank2
  3995  07F2  1C03               	skipc
  3996  07F3  120C               	bcf	12,4	;volatile
  3997  07F4  1803               	skipnc
  3998  07F5  160C               	bsf	12,4	;volatile
  3999  07F6                     l98:	
  4000  07F6  0008               	return
  4001  07F7                     __end_of_output_relay:	
  4002                           
  4003                           	psect	text19
  4004  0546                     __ptext19:	
  4005 ;; *************** function _max7219_writeChar *****************
  4006 ;; Defined at:
  4007 ;;		line 107 in file "./max7219.h"
  4008 ;; Parameters:    Size  Location     Type
  4009 ;;  pos             2    3[BANK0 ] unsigned int 
  4010 ;;  data            2    5[BANK0 ] unsigned int 
  4011 ;; Auto vars:     Size  Location     Type
  4012 ;;		None
  4013 ;; Return value:  Size  Location     Type
  4014 ;;                  1    wreg      void 
  4015 ;; Registers used:
  4016 ;;		wreg, fsr1l, fsr1h, status,2, status,0, pclath, cstack
  4017 ;; Tracked objects:
  4018 ;;		On entry : 0/0
  4019 ;;		On exit  : 0/0
  4020 ;;		Unchanged: 0/0
  4021 ;; Data sizes:     COMMON   BANK0   BANK1   BANK2
  4022 ;;      Params:         0       4       0       0
  4023 ;;      Locals:         0       0       0       0
  4024 ;;      Temps:          0       2       0       0
  4025 ;;      Totals:         0       6       0       0
  4026 ;;Total ram usage:        6 bytes
  4027 ;; Hardware stack levels used:    1
  4028 ;; Hardware stack levels required when called:    2
  4029 ;; This function calls:
  4030 ;;		___max7219_write
  4031 ;; This function is called by:
  4032 ;;		_main
  4033 ;;		_display_init
  4034 ;;		_update_eeprom
  4035 ;; This function uses a non-reentrant model
  4036 ;;
  4037                           
  4038                           
  4039                           ;psect for function _max7219_writeChar
  4040  0546                     _max7219_writeChar:	
  4041  0546                     l1417:	
  4042                           ;incstack = 0
  4043                           ; Regs used in _max7219_writeChar: [wreg+fsr1l+fsr1h+status,2+status,0+pclath+cstack]
  4044                           
  4045                           
  4046                           ;./max7219.h: 108:     if (pos > 0 && pos < 10 && data < 10) {
  4047  0546  0020               	movlb	0	; select bank0
  4048  0547  0853               	movf	max7219_writeChar@pos,w
  4049  0548  0454               	iorwf	max7219_writeChar@pos+1,w
  4050  0549  1903               	btfsc	3,2
  4051  054A  2D4C               	goto	u861
  4052  054B  2D4D               	goto	u860
  4053  054C                     u861:	
  4054  054C  2D9F               	goto	l58
  4055  054D                     u860:	
  4056  054D                     l1419:	
  4057  054D  3000               	movlw	0
  4058  054E  0254               	subwf	max7219_writeChar@pos+1,w
  4059  054F  300A               	movlw	10
  4060  0550  1903               	skipnz
  4061  0551  0253               	subwf	max7219_writeChar@pos,w
  4062  0552  1803               	skipnc
  4063  0553  2D55               	goto	u871
  4064  0554  2D56               	goto	u870
  4065  0555                     u871:	
  4066  0555  2D9F               	goto	l58
  4067  0556                     u870:	
  4068  0556                     l1421:	
  4069  0556  3000               	movlw	0
  4070  0557  0256               	subwf	max7219_writeChar@data+1,w
  4071  0558  300A               	movlw	10
  4072  0559  1903               	skipnz
  4073  055A  0255               	subwf	max7219_writeChar@data,w
  4074  055B  1803               	skipnc
  4075  055C  2D5E               	goto	u881
  4076  055D  2D5F               	goto	u880
  4077  055E                     u881:	
  4078  055E  2D9F               	goto	l58
  4079  055F                     u880:	
  4080  055F                     l1423:	
  4081                           
  4082                           ;./max7219.h: 109:         if (pos == 1 || pos == 5 || pos == 7 || pos == 3) {
  4083  055F  0353               	decf	max7219_writeChar@pos,w
  4084  0560  0454               	iorwf	max7219_writeChar@pos+1,w
  4085  0561  1903               	btfsc	3,2
  4086  0562  2D64               	goto	u891
  4087  0563  2D65               	goto	u890
  4088  0564                     u891:	
  4089  0564  2D7A               	goto	l1431
  4090  0565                     u890:	
  4091  0565                     l1425:	
  4092  0565  3005               	movlw	5
  4093  0566  0653               	xorwf	max7219_writeChar@pos,w
  4094  0567  0454               	iorwf	max7219_writeChar@pos+1,w
  4095  0568  1903               	btfsc	3,2
  4096  0569  2D6B               	goto	u901
  4097  056A  2D6C               	goto	u900
  4098  056B                     u901:	
  4099  056B  2D7A               	goto	l1431
  4100  056C                     u900:	
  4101  056C                     l1427:	
  4102  056C  3007               	movlw	7
  4103  056D  0653               	xorwf	max7219_writeChar@pos,w
  4104  056E  0454               	iorwf	max7219_writeChar@pos+1,w
  4105  056F  1903               	btfsc	3,2
  4106  0570  2D72               	goto	u911
  4107  0571  2D73               	goto	u910
  4108  0572                     u911:	
  4109  0572  2D7A               	goto	l1431
  4110  0573                     u910:	
  4111  0573                     l1429:	
  4112  0573  3003               	movlw	3
  4113  0574  0653               	xorwf	max7219_writeChar@pos,w
  4114  0575  0454               	iorwf	max7219_writeChar@pos+1,w
  4115  0576  1D03               	btfss	3,2
  4116  0577  2D79               	goto	u921
  4117  0578  2D7A               	goto	u920
  4118  0579                     u921:	
  4119  0579  2D8D               	goto	l1433
  4120  057A                     u920:	
  4121  057A                     l1431:	
  4122                           
  4123                           ;./max7219.h: 110:             __max7219_write(pos, dig1[data]);
  4124  057A  0854               	movf	max7219_writeChar@pos+1,w
  4125  057B  00F2               	movwf	___max7219_write@address+1
  4126  057C  0853               	movf	max7219_writeChar@pos,w
  4127  057D  00F1               	movwf	___max7219_write@address
  4128  057E  0855               	movf	max7219_writeChar@data,w
  4129  057F  3E45               	addlw	(low (_dig1| 0))& (0+255)
  4130  0580  0086               	movwf	6
  4131  0581  0187               	clrf	7
  4132  0582  0801               	movf	1,w
  4133  0583  00D7               	movwf	??_max7219_writeChar
  4134  0584  01D8               	clrf	??_max7219_writeChar+1
  4135  0585  0857               	movf	??_max7219_writeChar,w
  4136  0586  00F3               	movwf	___max7219_write@data
  4137  0587  0858               	movf	??_max7219_writeChar+1,w
  4138  0588  00F4               	movwf	___max7219_write@data+1
  4139  0589  3186  263E  3185   	fcall	___max7219_write
  4140                           
  4141                           ;./max7219.h: 111:         } else {
  4142  058C  2D9F               	goto	l58
  4143  058D                     l1433:	
  4144                           
  4145                           ;./max7219.h: 112:             __max7219_write(pos, dig2[data]);
  4146  058D  0854               	movf	max7219_writeChar@pos+1,w
  4147  058E  00F2               	movwf	___max7219_write@address+1
  4148  058F  0853               	movf	max7219_writeChar@pos,w
  4149  0590  00F1               	movwf	___max7219_write@address
  4150  0591  0855               	movf	max7219_writeChar@data,w
  4151  0592  3E3A               	addlw	(low (_dig2| 0))& (0+255)
  4152  0593  0086               	movwf	6
  4153  0594  0187               	clrf	7
  4154  0595  0801               	movf	1,w
  4155  0596  00D7               	movwf	??_max7219_writeChar
  4156  0597  01D8               	clrf	??_max7219_writeChar+1
  4157  0598  0857               	movf	??_max7219_writeChar,w
  4158  0599  00F3               	movwf	___max7219_write@data
  4159  059A  0858               	movf	??_max7219_writeChar+1,w
  4160  059B  00F4               	movwf	___max7219_write@data+1
  4161  059C  3186  263E  3185   	fcall	___max7219_write
  4162  059F                     l58:	
  4163  059F  0008               	return
  4164  05A0                     __end_of_max7219_writeChar:	
  4165                           
  4166                           	psect	text20
  4167  063E                     __ptext20:	
  4168 ;; *************** function ___max7219_write *****************
  4169 ;; Defined at:
  4170 ;;		line 65 in file "./max7219.h"
  4171 ;; Parameters:    Size  Location     Type
  4172 ;;  address         2    1[COMMON] unsigned int 
  4173 ;;  data            2    3[COMMON] unsigned int 
  4174 ;; Auto vars:     Size  Location     Type
  4175 ;;  i               2   11[COMMON] unsigned int 
  4176 ;;  dataSend        2    9[COMMON] unsigned int 
  4177 ;;  j               2    0        unsigned int 
  4178 ;; Return value:  Size  Location     Type
  4179 ;;                  1    wreg      void 
  4180 ;; Registers used:
  4181 ;;		wreg, status,2, status,0
  4182 ;; Tracked objects:
  4183 ;;		On entry : 0/0
  4184 ;;		On exit  : 0/0
  4185 ;;		Unchanged: 0/0
  4186 ;; Data sizes:     COMMON   BANK0   BANK1   BANK2
  4187 ;;      Params:         4       0       0       0
  4188 ;;      Locals:         4       0       0       0
  4189 ;;      Temps:          4       0       0       0
  4190 ;;      Totals:        12       0       0       0
  4191 ;;Total ram usage:       12 bytes
  4192 ;; Hardware stack levels used:    1
  4193 ;; Hardware stack levels required when called:    1
  4194 ;; This function calls:
  4195 ;;		Nothing
  4196 ;; This function is called by:
  4197 ;;		_max7219_config
  4198 ;;		_max7219_writeChar
  4199 ;;		_max7219_brillo
  4200 ;; This function uses a non-reentrant model
  4201 ;;
  4202                           
  4203                           
  4204                           ;psect for function ___max7219_write
  4205  063E                     ___max7219_write:	
  4206  063E                     l1391:	
  4207                           ;incstack = 0
  4208                           ; Regs used in ___max7219_write: [wreg+status,2+status,0]
  4209                           
  4210                           
  4211                           ;./max7219.h: 67:     unsigned int dataSend = 0;
  4212  063E  01F9               	clrf	___max7219_write@dataSend
  4213  063F  01FA               	clrf	___max7219_write@dataSend+1
  4214  0640                     l1393:	
  4215                           
  4216                           ;./max7219.h: 68:     dataSend = address;
  4217  0640  0872               	movf	___max7219_write@address+1,w
  4218  0641  00FA               	movwf	___max7219_write@dataSend+1
  4219  0642  0871               	movf	___max7219_write@address,w
  4220  0643  00F9               	movwf	___max7219_write@dataSend
  4221  0644                     l1395:	
  4222                           
  4223                           ;./max7219.h: 69:     dataSend <<= 8;
  4224  0644  3008               	movlw	8
  4225  0645                     u825:	
  4226  0645  35F9               	lslf	___max7219_write@dataSend,f
  4227  0646  0DFA               	rlf	___max7219_write@dataSend+1,f
  4228  0647  0B89               	decfsz	9,f
  4229  0648  2E45               	goto	u825
  4230  0649                     l1397:	
  4231                           
  4232                           ;./max7219.h: 70:     dataSend += data;
  4233  0649  0873               	movf	___max7219_write@data,w
  4234  064A  07F9               	addwf	___max7219_write@dataSend,f
  4235  064B  0874               	movf	___max7219_write@data+1,w
  4236  064C  3DFA               	addwfc	___max7219_write@dataSend+1,f
  4237  064D                     l1399:	
  4238                           
  4239                           ;./max7219.h: 71:     dataSend &= 0x0FFF;
  4240  064D  30FF               	movlw	255
  4241  064E  05F9               	andwf	___max7219_write@dataSend,f
  4242  064F  300F               	movlw	15
  4243  0650  05FA               	andwf	___max7219_write@dataSend+1,f
  4244  0651                     l1401:	
  4245                           
  4246                           ;./max7219.h: 72:     LATCbits.LATC2 = 0;
  4247  0651  0022               	movlb	2	; select bank2
  4248  0652  110E               	bcf	14,2	;volatile
  4249  0653                     l1403:	
  4250                           
  4251                           ;./max7219.h: 73:     for (i = 16; i > 0; i--) {
  4252  0653  3010               	movlw	16
  4253  0654  00FB               	movwf	___max7219_write@i
  4254  0655  3000               	movlw	0
  4255  0656  00FC               	movwf	___max7219_write@i+1
  4256  0657                     l1409:	
  4257                           
  4258                           ;./max7219.h: 74:         if (dataSend & (1 << (i - 1))) {
  4259  0657  3001               	movlw	1
  4260  0658  00F5               	movwf	??___max7219_write
  4261  0659  3000               	movlw	0
  4262  065A  00F6               	movwf	??___max7219_write+1
  4263  065B  087B               	movf	___max7219_write@i,w
  4264  065C  3EFF               	addlw	255
  4265  065D  0A89               	incf	9,f
  4266  065E  2E61               	goto	u834
  4267  065F                     u835:	
  4268  065F  35F5               	lslf	??___max7219_write,f
  4269  0660  0DF6               	rlf	??___max7219_write+1,f
  4270  0661                     u834:	
  4271  0661  0B89               	decfsz	9,f
  4272  0662  2E5F               	goto	u835
  4273  0663  0879               	movf	___max7219_write@dataSend,w
  4274  0664  0575               	andwf	??___max7219_write,w
  4275  0665  00F7               	movwf	??___max7219_write+2
  4276  0666  087A               	movf	___max7219_write@dataSend+1,w
  4277  0667  0576               	andwf	??___max7219_write+1,w
  4278  0668  00F8               	movwf	??___max7219_write+3
  4279  0669  0877               	movf	??___max7219_write+2,w
  4280  066A  0478               	iorwf	??___max7219_write+3,w
  4281  066B  1903               	btfsc	3,2
  4282  066C  2E6E               	goto	u841
  4283  066D  2E6F               	goto	u840
  4284  066E                     u841:	
  4285  066E  2E71               	goto	l45
  4286  066F                     u840:	
  4287  066F                     l1411:	
  4288                           
  4289                           ;./max7219.h: 75:             LATCbits.LATC1 = 1;
  4290  066F  148E               	bsf	14,1	;volatile
  4291                           
  4292                           ;./max7219.h: 76:         } else {
  4293  0670  2E72               	goto	l46
  4294  0671                     l45:	
  4295                           
  4296                           ;./max7219.h: 77:             LATCbits.LATC1 = 0;
  4297  0671  108E               	bcf	14,1	;volatile
  4298  0672                     l46:	
  4299                           ;./max7219.h: 78:         }
  4300                           
  4301                           
  4302                           ;./max7219.h: 79:         LATCbits.LATC3 = 1;
  4303  0672  158E               	bsf	14,3	;volatile
  4304                           
  4305                           ;./max7219.h: 80:         LATCbits.LATC3 = 0;
  4306  0673  118E               	bcf	14,3	;volatile
  4307  0674                     l1413:	
  4308                           
  4309                           ;./max7219.h: 81:     }
  4310  0674  3001               	movlw	1
  4311  0675  02FB               	subwf	___max7219_write@i,f
  4312  0676  3000               	movlw	0
  4313  0677  3BFC               	subwfb	___max7219_write@i+1,f
  4314  0678                     l1415:	
  4315  0678  087B               	movf	___max7219_write@i,w
  4316  0679  047C               	iorwf	___max7219_write@i+1,w
  4317  067A  1D03               	btfss	3,2
  4318  067B  2E7D               	goto	u851
  4319  067C  2E7E               	goto	u850
  4320  067D                     u851:	
  4321  067D  2E57               	goto	l1409
  4322  067E                     u850:	
  4323  067E                     l44:	
  4324                           
  4325                           ;./max7219.h: 82:     LATCbits.LATC2 = 1;
  4326  067E  150E               	bsf	14,2	;volatile
  4327  067F                     l47:	
  4328  067F  0008               	return
  4329  0680                     __end_of___max7219_write:	
  4330                           
  4331                           	psect	text21
  4332  05A0                     __ptext21:	
  4333 ;; *************** function ___awmod *****************
  4334 ;; Defined at:
  4335 ;;		line 5 in file "C:\Program Files (x86)\Microchip\xc8\v2.10\pic\sources\c99\common\awmod.c"
  4336 ;; Parameters:    Size  Location     Type
  4337 ;;  divisor         2    1[COMMON] int 
  4338 ;;  dividend        2    3[COMMON] int 
  4339 ;; Auto vars:     Size  Location     Type
  4340 ;;  sign            1    7[COMMON] unsigned char 
  4341 ;;  counter         1    6[COMMON] unsigned char 
  4342 ;; Return value:  Size  Location     Type
  4343 ;;                  2    1[COMMON] int 
  4344 ;; Registers used:
  4345 ;;		wreg, status,2, status,0
  4346 ;; Tracked objects:
  4347 ;;		On entry : 0/0
  4348 ;;		On exit  : 0/0
  4349 ;;		Unchanged: 0/0
  4350 ;; Data sizes:     COMMON   BANK0   BANK1   BANK2
  4351 ;;      Params:         4       0       0       0
  4352 ;;      Locals:         2       0       0       0
  4353 ;;      Temps:          1       0       0       0
  4354 ;;      Totals:         7       0       0       0
  4355 ;;Total ram usage:        7 bytes
  4356 ;; Hardware stack levels used:    1
  4357 ;; Hardware stack levels required when called:    1
  4358 ;; This function calls:
  4359 ;;		Nothing
  4360 ;; This function is called by:
  4361 ;;		_main
  4362 ;;		_display_init
  4363 ;; This function uses a non-reentrant model
  4364 ;;
  4365                           
  4366                           
  4367                           ;psect for function ___awmod
  4368  05A0                     ___awmod:	
  4369  05A0                     l1505:	
  4370                           ;incstack = 0
  4371                           ; Regs used in ___awmod: [wreg+status,2+status,0]
  4372                           
  4373  05A0  01F7               	clrf	___awmod@sign
  4374  05A1                     l1507:	
  4375  05A1  1FF4               	btfss	___awmod@dividend+1,7
  4376  05A2  2DA4               	goto	u1071
  4377  05A3  2DA5               	goto	u1070
  4378  05A4                     u1071:	
  4379  05A4  2DAC               	goto	l1513
  4380  05A5                     u1070:	
  4381  05A5                     l1509:	
  4382  05A5  09F3               	comf	___awmod@dividend,f
  4383  05A6  09F4               	comf	___awmod@dividend+1,f
  4384  05A7  0AF3               	incf	___awmod@dividend,f
  4385  05A8  1903               	skipnz
  4386  05A9  0AF4               	incf	___awmod@dividend+1,f
  4387  05AA                     l1511:	
  4388  05AA  01F7               	clrf	___awmod@sign
  4389  05AB  0AF7               	incf	___awmod@sign,f
  4390  05AC                     l1513:	
  4391  05AC  1FF2               	btfss	___awmod@divisor+1,7
  4392  05AD  2DAF               	goto	u1081
  4393  05AE  2DB0               	goto	u1080
  4394  05AF                     u1081:	
  4395  05AF  2DB5               	goto	l1517
  4396  05B0                     u1080:	
  4397  05B0                     l1515:	
  4398  05B0  09F1               	comf	___awmod@divisor,f
  4399  05B1  09F2               	comf	___awmod@divisor+1,f
  4400  05B2  0AF1               	incf	___awmod@divisor,f
  4401  05B3  1903               	skipnz
  4402  05B4  0AF2               	incf	___awmod@divisor+1,f
  4403  05B5                     l1517:	
  4404  05B5  0871               	movf	___awmod@divisor,w
  4405  05B6  0472               	iorwf	___awmod@divisor+1,w
  4406  05B7  1903               	btfsc	3,2
  4407  05B8  2DBA               	goto	u1091
  4408  05B9  2DBB               	goto	u1090
  4409  05BA                     u1091:	
  4410  05BA  2DE4               	goto	l1535
  4411  05BB                     u1090:	
  4412  05BB                     l1519:	
  4413  05BB  01F6               	clrf	___awmod@counter
  4414  05BC  0AF6               	incf	___awmod@counter,f
  4415  05BD  2DC7               	goto	l1525
  4416  05BE                     l1521:	
  4417  05BE  3001               	movlw	1
  4418  05BF                     u1105:	
  4419  05BF  35F1               	lslf	___awmod@divisor,f
  4420  05C0  0DF2               	rlf	___awmod@divisor+1,f
  4421  05C1  0B89               	decfsz	9,f
  4422  05C2  2DBF               	goto	u1105
  4423  05C3                     l1523:	
  4424  05C3  3001               	movlw	1
  4425  05C4  00F5               	movwf	??___awmod
  4426  05C5  0875               	movf	??___awmod,w
  4427  05C6  07F6               	addwf	___awmod@counter,f
  4428  05C7                     l1525:	
  4429  05C7  1FF2               	btfss	___awmod@divisor+1,7
  4430  05C8  2DCA               	goto	u1111
  4431  05C9  2DCB               	goto	u1110
  4432  05CA                     u1111:	
  4433  05CA  2DBE               	goto	l1521
  4434  05CB                     u1110:	
  4435  05CB                     l1527:	
  4436  05CB  0872               	movf	___awmod@divisor+1,w
  4437  05CC  0274               	subwf	___awmod@dividend+1,w
  4438  05CD  1D03               	skipz
  4439  05CE  2DD1               	goto	u1125
  4440  05CF  0871               	movf	___awmod@divisor,w
  4441  05D0  0273               	subwf	___awmod@dividend,w
  4442  05D1                     u1125:	
  4443  05D1  1C03               	skipc
  4444  05D2  2DD4               	goto	u1121
  4445  05D3  2DD5               	goto	u1120
  4446  05D4                     u1121:	
  4447  05D4  2DD9               	goto	l1531
  4448  05D5                     u1120:	
  4449  05D5                     l1529:	
  4450  05D5  0871               	movf	___awmod@divisor,w
  4451  05D6  02F3               	subwf	___awmod@dividend,f
  4452  05D7  0872               	movf	___awmod@divisor+1,w
  4453  05D8  3BF4               	subwfb	___awmod@dividend+1,f
  4454  05D9                     l1531:	
  4455  05D9  3001               	movlw	1
  4456  05DA                     u1135:	
  4457  05DA  36F2               	lsrf	___awmod@divisor+1,f
  4458  05DB  0CF1               	rrf	___awmod@divisor,f
  4459  05DC  0B89               	decfsz	9,f
  4460  05DD  2DDA               	goto	u1135
  4461  05DE                     l1533:	
  4462  05DE  3001               	movlw	1
  4463  05DF  02F6               	subwf	___awmod@counter,f
  4464  05E0  1D03               	btfss	3,2
  4465  05E1  2DE3               	goto	u1141
  4466  05E2  2DE4               	goto	u1140
  4467  05E3                     u1141:	
  4468  05E3  2DCB               	goto	l1527
  4469  05E4                     u1140:	
  4470  05E4                     l1535:	
  4471  05E4  0877               	movf	___awmod@sign,w
  4472  05E5  1903               	btfsc	3,2
  4473  05E6  2DE8               	goto	u1151
  4474  05E7  2DE9               	goto	u1150
  4475  05E8                     u1151:	
  4476  05E8  2DEE               	goto	l1539
  4477  05E9                     u1150:	
  4478  05E9                     l1537:	
  4479  05E9  09F3               	comf	___awmod@dividend,f
  4480  05EA  09F4               	comf	___awmod@dividend+1,f
  4481  05EB  0AF3               	incf	___awmod@dividend,f
  4482  05EC  1903               	skipnz
  4483  05ED  0AF4               	incf	___awmod@dividend+1,f
  4484  05EE                     l1539:	
  4485  05EE  0874               	movf	___awmod@dividend+1,w
  4486  05EF  00F2               	movwf	?___awmod+1
  4487  05F0  0873               	movf	___awmod@dividend,w
  4488  05F1  00F1               	movwf	?___awmod
  4489  05F2                     l535:	
  4490  05F2  0008               	return
  4491  05F3                     __end_of___awmod:	
  4492                           
  4493                           	psect	text22
  4494  04E7                     __ptext22:	
  4495 ;; *************** function ___awdiv *****************
  4496 ;; Defined at:
  4497 ;;		line 5 in file "C:\Program Files (x86)\Microchip\xc8\v2.10\pic\sources\c99\common\awdiv.c"
  4498 ;; Parameters:    Size  Location     Type
  4499 ;;  divisor         2    1[COMMON] int 
  4500 ;;  dividend        2    3[COMMON] int 
  4501 ;; Auto vars:     Size  Location     Type
  4502 ;;  quotient        2    8[COMMON] int 
  4503 ;;  sign            1    7[COMMON] unsigned char 
  4504 ;;  counter         1    6[COMMON] unsigned char 
  4505 ;; Return value:  Size  Location     Type
  4506 ;;                  2    1[COMMON] int 
  4507 ;; Registers used:
  4508 ;;		wreg, status,2, status,0
  4509 ;; Tracked objects:
  4510 ;;		On entry : 0/0
  4511 ;;		On exit  : 0/0
  4512 ;;		Unchanged: 0/0
  4513 ;; Data sizes:     COMMON   BANK0   BANK1   BANK2
  4514 ;;      Params:         4       0       0       0
  4515 ;;      Locals:         4       0       0       0
  4516 ;;      Temps:          1       0       0       0
  4517 ;;      Totals:         9       0       0       0
  4518 ;;Total ram usage:        9 bytes
  4519 ;; Hardware stack levels used:    1
  4520 ;; Hardware stack levels required when called:    1
  4521 ;; This function calls:
  4522 ;;		Nothing
  4523 ;; This function is called by:
  4524 ;;		_main
  4525 ;;		_display_init
  4526 ;; This function uses a non-reentrant model
  4527 ;;
  4528                           
  4529                           
  4530                           ;psect for function ___awdiv
  4531  04E7                     ___awdiv:	
  4532  04E7                     l1461:	
  4533                           ;incstack = 0
  4534                           ; Regs used in ___awdiv: [wreg+status,2+status,0]
  4535                           
  4536  04E7  01F7               	clrf	___awdiv@sign
  4537  04E8                     l1463:	
  4538  04E8  1FF2               	btfss	___awdiv@divisor+1,7
  4539  04E9  2CEB               	goto	u971
  4540  04EA  2CEC               	goto	u970
  4541  04EB                     u971:	
  4542  04EB  2CF3               	goto	l1469
  4543  04EC                     u970:	
  4544  04EC                     l1465:	
  4545  04EC  09F1               	comf	___awdiv@divisor,f
  4546  04ED  09F2               	comf	___awdiv@divisor+1,f
  4547  04EE  0AF1               	incf	___awdiv@divisor,f
  4548  04EF  1903               	skipnz
  4549  04F0  0AF2               	incf	___awdiv@divisor+1,f
  4550  04F1                     l1467:	
  4551  04F1  01F7               	clrf	___awdiv@sign
  4552  04F2  0AF7               	incf	___awdiv@sign,f
  4553  04F3                     l1469:	
  4554  04F3  1FF4               	btfss	___awdiv@dividend+1,7
  4555  04F4  2CF6               	goto	u981
  4556  04F5  2CF7               	goto	u980
  4557  04F6                     u981:	
  4558  04F6  2D00               	goto	l1475
  4559  04F7                     u980:	
  4560  04F7                     l1471:	
  4561  04F7  09F3               	comf	___awdiv@dividend,f
  4562  04F8  09F4               	comf	___awdiv@dividend+1,f
  4563  04F9  0AF3               	incf	___awdiv@dividend,f
  4564  04FA  1903               	skipnz
  4565  04FB  0AF4               	incf	___awdiv@dividend+1,f
  4566  04FC                     l1473:	
  4567  04FC  3001               	movlw	1
  4568  04FD  00F5               	movwf	??___awdiv
  4569  04FE  0875               	movf	??___awdiv,w
  4570  04FF  06F7               	xorwf	___awdiv@sign,f
  4571  0500                     l1475:	
  4572  0500  01F8               	clrf	___awdiv@quotient
  4573  0501  01F9               	clrf	___awdiv@quotient+1
  4574  0502                     l1477:	
  4575  0502  0871               	movf	___awdiv@divisor,w
  4576  0503  0472               	iorwf	___awdiv@divisor+1,w
  4577  0504  1903               	btfsc	3,2
  4578  0505  2D07               	goto	u991
  4579  0506  2D08               	goto	u990
  4580  0507                     u991:	
  4581  0507  2D37               	goto	l1497
  4582  0508                     u990:	
  4583  0508                     l1479:	
  4584  0508  01F6               	clrf	___awdiv@counter
  4585  0509  0AF6               	incf	___awdiv@counter,f
  4586  050A  2D14               	goto	l1485
  4587  050B                     l1481:	
  4588  050B  3001               	movlw	1
  4589  050C                     u1005:	
  4590  050C  35F1               	lslf	___awdiv@divisor,f
  4591  050D  0DF2               	rlf	___awdiv@divisor+1,f
  4592  050E  0B89               	decfsz	9,f
  4593  050F  2D0C               	goto	u1005
  4594  0510                     l1483:	
  4595  0510  3001               	movlw	1
  4596  0511  00F5               	movwf	??___awdiv
  4597  0512  0875               	movf	??___awdiv,w
  4598  0513  07F6               	addwf	___awdiv@counter,f
  4599  0514                     l1485:	
  4600  0514  1FF2               	btfss	___awdiv@divisor+1,7
  4601  0515  2D17               	goto	u1011
  4602  0516  2D18               	goto	u1010
  4603  0517                     u1011:	
  4604  0517  2D0B               	goto	l1481
  4605  0518                     u1010:	
  4606  0518                     l1487:	
  4607  0518  3001               	movlw	1
  4608  0519                     u1025:	
  4609  0519  35F8               	lslf	___awdiv@quotient,f
  4610  051A  0DF9               	rlf	___awdiv@quotient+1,f
  4611  051B  0B89               	decfsz	9,f
  4612  051C  2D19               	goto	u1025
  4613  051D  0872               	movf	___awdiv@divisor+1,w
  4614  051E  0274               	subwf	___awdiv@dividend+1,w
  4615  051F  1D03               	skipz
  4616  0520  2D23               	goto	u1035
  4617  0521  0871               	movf	___awdiv@divisor,w
  4618  0522  0273               	subwf	___awdiv@dividend,w
  4619  0523                     u1035:	
  4620  0523  1C03               	skipc
  4621  0524  2D26               	goto	u1031
  4622  0525  2D27               	goto	u1030
  4623  0526                     u1031:	
  4624  0526  2D2C               	goto	l1493
  4625  0527                     u1030:	
  4626  0527                     l1489:	
  4627  0527  0871               	movf	___awdiv@divisor,w
  4628  0528  02F3               	subwf	___awdiv@dividend,f
  4629  0529  0872               	movf	___awdiv@divisor+1,w
  4630  052A  3BF4               	subwfb	___awdiv@dividend+1,f
  4631  052B                     l1491:	
  4632  052B  1478               	bsf	___awdiv@quotient,0
  4633  052C                     l1493:	
  4634  052C  3001               	movlw	1
  4635  052D                     u1045:	
  4636  052D  36F2               	lsrf	___awdiv@divisor+1,f
  4637  052E  0CF1               	rrf	___awdiv@divisor,f
  4638  052F  0B89               	decfsz	9,f
  4639  0530  2D2D               	goto	u1045
  4640  0531                     l1495:	
  4641  0531  3001               	movlw	1
  4642  0532  02F6               	subwf	___awdiv@counter,f
  4643  0533  1D03               	btfss	3,2
  4644  0534  2D36               	goto	u1051
  4645  0535  2D37               	goto	u1050
  4646  0536                     u1051:	
  4647  0536  2D18               	goto	l1487
  4648  0537                     u1050:	
  4649  0537                     l1497:	
  4650  0537  0877               	movf	___awdiv@sign,w
  4651  0538  1903               	btfsc	3,2
  4652  0539  2D3B               	goto	u1061
  4653  053A  2D3C               	goto	u1060
  4654  053B                     u1061:	
  4655  053B  2D41               	goto	l1501
  4656  053C                     u1060:	
  4657  053C                     l1499:	
  4658  053C  09F8               	comf	___awdiv@quotient,f
  4659  053D  09F9               	comf	___awdiv@quotient+1,f
  4660  053E  0AF8               	incf	___awdiv@quotient,f
  4661  053F  1903               	skipnz
  4662  0540  0AF9               	incf	___awdiv@quotient+1,f
  4663  0541                     l1501:	
  4664  0541  0879               	movf	___awdiv@quotient+1,w
  4665  0542  00F2               	movwf	?___awdiv+1
  4666  0543  0878               	movf	___awdiv@quotient,w
  4667  0544  00F1               	movwf	?___awdiv
  4668  0545                     l522:	
  4669  0545  0008               	return
  4670  0546                     __end_of___awdiv:	
  4671                           
  4672                           	psect	intentry
  4673  0004                     __pintentry:	
  4674 ;; *************** function _myISR *****************
  4675 ;; Defined at:
  4676 ;;		line 189 in file "main.c"
  4677 ;; Parameters:    Size  Location     Type
  4678 ;;		None
  4679 ;; Auto vars:     Size  Location     Type
  4680 ;;		None
  4681 ;; Return value:  Size  Location     Type
  4682 ;;                  1    wreg      void 
  4683 ;; Registers used:
  4684 ;;		wreg, status,2, status,0
  4685 ;; Tracked objects:
  4686 ;;		On entry : 0/0
  4687 ;;		On exit  : 0/0
  4688 ;;		Unchanged: 0/0
  4689 ;; Data sizes:     COMMON   BANK0   BANK1   BANK2
  4690 ;;      Params:         0       0       0       0
  4691 ;;      Locals:         0       0       0       0
  4692 ;;      Temps:          1       0       0       0
  4693 ;;      Totals:         1       0       0       0
  4694 ;;Total ram usage:        1 bytes
  4695 ;; Hardware stack levels used:    1
  4696 ;; This function calls:
  4697 ;;		Nothing
  4698 ;; This function is called by:
  4699 ;;		Interrupt level 1
  4700 ;; This function uses a non-reentrant model
  4701 ;;
  4702                           
  4703  0004                     _myISR:	
  4704                           
  4705                           ;incstack = 0
  4706  0004  147E               	bsf	int$flags,0	;set compiler interrupt flag (level 1)
  4707                           
  4708                           ; Regs used in _myISR: [wreg+status,2+status,0]
  4709  0005  3180               	pagesel	$
  4710  0006                     i1l1935:	
  4711                           
  4712                           ;main.c: 190:     static int f = 0;;main.c: 191:     if (INTCONbits.TMR0IE && INTCONbits
      +                          .TMR0IF) {
  4713  0006  1E8B               	btfss	11,5	;volatile
  4714  0007  2809               	goto	u159_21
  4715  0008  280A               	goto	u159_20
  4716  0009                     u159_21:	
  4717  0009  2836               	goto	i1l182
  4718  000A                     u159_20:	
  4719  000A                     i1l1937:	
  4720  000A  1D0B               	btfss	11,2	;volatile
  4721  000B  280D               	goto	u160_21
  4722  000C  280E               	goto	u160_20
  4723  000D                     u160_21:	
  4724  000D  2836               	goto	i1l182
  4725  000E                     u160_20:	
  4726  000E                     i1l1939:	
  4727                           
  4728                           ;main.c: 192:         TMR0 = 0;
  4729  000E  0020               	movlb	0	; select bank0
  4730  000F  0195               	clrf	21	;volatile
  4731  0010                     i1l1941:	
  4732                           
  4733                           ;main.c: 193:         INTCONbits.TMR0IF = 0;
  4734  0010  110B               	bcf	11,2	;volatile
  4735  0011                     i1l1943:	
  4736                           
  4737                           ;main.c: 194:         if (++f >= 125) {
  4738  0011  3001               	movlw	1
  4739  0012  07A4               	addwf	myISR@f,f
  4740  0013  3000               	movlw	0
  4741  0014  3DA5               	addwfc	myISR@f+1,f
  4742  0015  0825               	movf	myISR@f+1,w
  4743  0016  3A80               	xorlw	128
  4744  0017  00F0               	movwf	??_myISR
  4745  0018  3080               	movlw	128
  4746  0019  0270               	subwf	??_myISR,w
  4747  001A  1D03               	skipz
  4748  001B  281E               	goto	u161_25
  4749  001C  307D               	movlw	125
  4750  001D  0224               	subwf	myISR@f,w
  4751  001E                     u161_25:	
  4752  001E  1C03               	skipc
  4753  001F  2821               	goto	u161_21
  4754  0020  2822               	goto	u161_20
  4755  0021                     u161_21:	
  4756  0021  2836               	goto	i1l182
  4757  0022                     u161_20:	
  4758  0022                     i1l1945:	
  4759                           
  4760                           ;main.c: 195:             f = 0;
  4761  0022  0020               	movlb	0	; select bank0
  4762  0023  01A4               	clrf	myISR@f
  4763  0024  01A5               	clrf	myISR@f+1
  4764  0025                     i1l1947:	
  4765                           
  4766                           ;main.c: 196:             if (++segundos_temp == 60) {
  4767  0025  3001               	movlw	1
  4768  0026  07AC               	addwf	_segundos_temp,f
  4769  0027  3000               	movlw	0
  4770  0028  3DAD               	addwfc	_segundos_temp+1,f
  4771  0029  303C               	movlw	60
  4772  002A  062C               	xorwf	_segundos_temp,w
  4773  002B  042D               	iorwf	_segundos_temp+1,w
  4774  002C  1D03               	btfss	3,2
  4775  002D  282F               	goto	u162_21
  4776  002E  2830               	goto	u162_20
  4777  002F                     u162_21:	
  4778  002F  2836               	goto	i1l182
  4779  0030                     u162_20:	
  4780  0030                     i1l1949:	
  4781                           
  4782                           ;main.c: 197:                 minutos_temp++;
  4783  0030  3001               	movlw	1
  4784  0031  07AE               	addwf	_minutos_temp,f
  4785  0032  3000               	movlw	0
  4786  0033  3DAF               	addwfc	_minutos_temp+1,f
  4787  0034                     i1l1951:	
  4788                           
  4789                           ;main.c: 198:                 segundos_temp = 0;
  4790  0034  01AC               	clrf	_segundos_temp
  4791  0035  01AD               	clrf	_segundos_temp+1
  4792  0036                     i1l182:	
  4793  0036  107E               	bcf	int$flags,0	;clear compiler interrupt flag (level 1)
  4794  0037  0009               	retfie
  4795  0038                     __end_of_myISR:	
  4796  007E                     btemp	set	126	;btemp
  4797  007E                     int$flags	set	126
  4798  007E                     wtemp0	set	126


Data Sizes:
    Strings     0
    Constant    0
    Data        22
    BSS         26
    Persistent  32
    Stack       0

Auto Spaces:
    Space          Size  Autos    Used
    COMMON           14     13      13
    BANK0            80     22      70
    BANK1            80      0       0
    BANK2            80      0       0

Pointer List with Targets:

    None.

Critical Paths under _main in COMMON

    ___lwdiv->___lwmod
    _max7219_config->___max7219_write
    _max7219_brillo->___max7219_write
    _max7219_writeChar->___max7219_write

Critical Paths under _myISR in COMMON

    None.

Critical Paths under _main in BANK0

    _main->_update_eeprom
    _update_eeprom->_max7219_writeChar
    _display_init->_max7219_writeChar
    _max7219_writeChar->___lwdiv

Critical Paths under _myISR in BANK0

    None.

Critical Paths under _main in BANK1

    None.

Critical Paths under _myISR in BANK1

    None.

Critical Paths under _main in BANK2

    None.

Critical Paths under _myISR in BANK2

    None.

Call Graph Tables:

 ---------------------------------------------------------------------------------
 (Depth) Function   	        Calls       Base Space   Used Autos Params    Refs
 ---------------------------------------------------------------------------------
 (0) _main                                                 1     1      0   27431
                                             21 BANK0      1     1      0
                            ___awdiv
                            ___awmod
                       _display_init
                       _eeprom_write
                       _input_config
               _input_pulsador_bajar
                  _input_pulsador_ok
               _input_pulsador_subir
                     _max7219_brillo
                     _max7219_config
                  _max7219_writeChar
                  _oscillator_config
                      _output_config
                       _output_relay
                     _timer_0_config
                    _timer_0_disable
                     _timer_0_enable
                      _update_eeprom
 ---------------------------------------------------------------------------------
 (1) _update_eeprom                                       12    12      0    7369
                                              9 BANK0     12    12      0
                            ___lwdiv
                            ___lwmod
                        _eeprom_read
                       _eeprom_write
                  _max7219_writeChar
 ---------------------------------------------------------------------------------
 (2) _eeprom_write                                         4     3      1     500
                                              1 COMMON     4     3      1
 ---------------------------------------------------------------------------------
 (2) _eeprom_read                                          4     4      0      22
                                              1 COMMON     4     4      0
 ---------------------------------------------------------------------------------
 (2) ___lwmod                                              6     2      4    1071
                                              1 COMMON     6     2      4
 ---------------------------------------------------------------------------------
 (2) ___lwdiv                                              8     4      4     618
                                              7 COMMON     5     1      4
                                              0 BANK0      3     3      0
                            ___lwmod (ARG)
 ---------------------------------------------------------------------------------
 (1) _timer_0_enable                                       0     0      0       0
 ---------------------------------------------------------------------------------
 (1) _timer_0_disable                                      0     0      0       0
 ---------------------------------------------------------------------------------
 (1) _timer_0_config                                       0     0      0       0
 ---------------------------------------------------------------------------------
 (1) _output_config                                        0     0      0       0
 ---------------------------------------------------------------------------------
 (1) _oscillator_config                                    0     0      0       0
 ---------------------------------------------------------------------------------
 (1) _max7219_config                                       0     0      0    1356
                    ___max7219_write
 ---------------------------------------------------------------------------------
 (1) _max7219_brillo                                       2     0      2    1476
                                              0 BANK0      2     0      2
                    ___max7219_write
 ---------------------------------------------------------------------------------
 (1) _input_pulsador_subir                                 3     1      2       0
                                              1 COMMON     3     1      2
 ---------------------------------------------------------------------------------
 (1) _input_pulsador_ok                                    3     1      2       0
                                              1 COMMON     3     1      2
 ---------------------------------------------------------------------------------
 (1) _input_pulsador_bajar                                 3     1      2       0
                                              1 COMMON     3     1      2
 ---------------------------------------------------------------------------------
 (1) _input_config                                         0     0      0       0
 ---------------------------------------------------------------------------------
 (1) _display_init                                         5     5      0    8434
                                              9 BANK0      5     5      0
                            ___awdiv
                            ___awmod
                  _max7219_writeChar
                       _output_relay
 ---------------------------------------------------------------------------------
 (1) _output_relay                                         2     0      2     478
                                              1 COMMON     2     0      2
 ---------------------------------------------------------------------------------
 (2) _max7219_writeChar                                    6     2      4    4790
                                              3 BANK0      6     2      4
                            ___awdiv (ARG)
                            ___awmod (ARG)
                            ___lwdiv (ARG)
                            ___lwmod (ARG)
                    ___max7219_write
 ---------------------------------------------------------------------------------
 (3) ___max7219_write                                     14    10      4    1356
                                              1 COMMON    12     8      4
 ---------------------------------------------------------------------------------
 (2) ___awmod                                              7     3      4    1512
                                              1 COMMON     7     3      4
 ---------------------------------------------------------------------------------
 (2) ___awdiv                                              9     5      4    1516
                                              1 COMMON     9     5      4
 ---------------------------------------------------------------------------------
 Estimated maximum stack depth 3
 ---------------------------------------------------------------------------------
 (Depth) Function   	        Calls       Base Space   Used Autos Params    Refs
 ---------------------------------------------------------------------------------
 (4) _myISR                                                1     1      0       0
                                              0 COMMON     1     1      0
 ---------------------------------------------------------------------------------
 Estimated maximum stack depth 4
 ---------------------------------------------------------------------------------

 Call Graph Graphs:

 _main (ROOT)
   ___awdiv
   ___awmod
   _display_init
     ___awdiv
     ___awmod
     _max7219_writeChar
       ___awdiv (ARG)
       ___awmod (ARG)
       ___lwdiv (ARG)
         ___lwmod (ARG)
       ___lwmod (ARG)
       ___max7219_write (ARG)
     _output_relay
   _eeprom_write
   _input_config
   _input_pulsador_bajar
   _input_pulsador_ok
   _input_pulsador_subir
   _max7219_brillo
     ___max7219_write
   _max7219_config
     ___max7219_write
   _max7219_writeChar
     ___awdiv (ARG)
     ___awmod (ARG)
     ___lwdiv (ARG)
       ___lwmod (ARG)
     ___lwmod (ARG)
     ___max7219_write (ARG)
   _oscillator_config
   _output_config
   _output_relay
   _timer_0_config
   _timer_0_disable
   _timer_0_enable
   _update_eeprom
     ___lwdiv
       ___lwmod (ARG)
     ___lwmod
     _eeprom_read
     _eeprom_write
     _max7219_writeChar
       ___awdiv (ARG)
       ___awmod (ARG)
       ___lwdiv (ARG)
         ___lwmod (ARG)
       ___lwmod (ARG)
       ___max7219_write (ARG)

 _myISR (ROOT)

 Address spaces:
Name               Size   Autos  Total    Cost      Usage
BIGRAM              F0      0       0       0        0.0%
EEDATA             100      0       0       0        0.0%
NULL                 0      0       0       0        0.0%
CODE                 0      0       0       0        0.0%
BITCOMMON            E      0       0       1        0.0%
BITSFR0              0      0       0       1        0.0%
SFR0                 0      0       0       1        0.0%
COMMON               E      D       D       2       92.9%
BITSFR1              0      0       0       2        0.0%
SFR1                 0      0       0       2        0.0%
BITSFR2              0      0       0       3        0.0%
SFR2                 0      0       0       3        0.0%
STACK                0      0       0       3        0.0%
BITSFR3              0      0       0       4        0.0%
SFR3                 0      0       0       4        0.0%
ABS                  0      0      53       4        0.0%
BITBANK0            50      0       0       5        0.0%
BITSFR4              0      0       0       5        0.0%
SFR4                 0      0       0       5        0.0%
BANK0               50     16      46       6       87.5%
BITSFR5              0      0       0       6        0.0%
SFR5                 0      0       0       6        0.0%
BITBANK1            50      0       0       7        0.0%
BITSFR6              0      0       0       7        0.0%
SFR6                 0      0       0       7        0.0%
BANK1               50      0       0       8        0.0%
BITSFR7              0      0       0       8        0.0%
SFR7                 0      0       0       8        0.0%
BITBANK2            50      0       0       9        0.0%
BITSFR8              0      0       0       9        0.0%
SFR8                 0      0       0       9        0.0%
BANK2               50      0       0      10        0.0%
BITSFR9              0      0       0      10        0.0%
SFR9                 0      0       0      10        0.0%
BITSFR10             0      0       0      11        0.0%
SFR10                0      0       0      11        0.0%
DATA                 0      0      53      11        0.0%
BITSFR11             0      0       0      12        0.0%
SFR11                0      0       0      12        0.0%
BITSFR12             0      0       0      13        0.0%
SFR12                0      0       0      13        0.0%
BITSFR13             0      0       0      14        0.0%
SFR13                0      0       0      14        0.0%
BITSFR14             0      0       0      15        0.0%
SFR14                0      0       0      15        0.0%
BITSFR15             0      0       0      16        0.0%
SFR15                0      0       0      16        0.0%
BITSFR16             0      0       0      17        0.0%
SFR16                0      0       0      17        0.0%
BITSFR17             0      0       0      18        0.0%
SFR17                0      0       0      18        0.0%
BITSFR18             0      0       0      19        0.0%
SFR18                0      0       0      19        0.0%
BITSFR19             0      0       0      20        0.0%
SFR19                0      0       0      20        0.0%
BITSFR20             0      0       0      21        0.0%
SFR20                0      0       0      21        0.0%
BITSFR21             0      0       0      22        0.0%
SFR21                0      0       0      22        0.0%
BITSFR22             0      0       0      23        0.0%
SFR22                0      0       0      23        0.0%
BITSFR23             0      0       0      24        0.0%
SFR23                0      0       0      24        0.0%
BITSFR24             0      0       0      25        0.0%
SFR24                0      0       0      25        0.0%
BITSFR25             0      0       0      26        0.0%
SFR25                0      0       0      26        0.0%
BITSFR26             0      0       0      27        0.0%
SFR26                0      0       0      27        0.0%
BITSFR27             0      0       0      28        0.0%
SFR27                0      0       0      28        0.0%
BITSFR28             0      0       0      29        0.0%
SFR28                0      0       0      29        0.0%
BITSFR29             0      0       0      30        0.0%
SFR29                0      0       0      30        0.0%
BITSFR30             0      0       0      31        0.0%
SFR30                0      0       0      31        0.0%
BITSFR31             0      0       0      32        0.0%
SFR31                0      0       0      32        0.0%


Microchip Technology PIC Macro Assembler V2.10 build 88905656 
Symbol Table                                                                                   Mon Apr 06 22:11:15 2020

             ??_timer_0_enable 0071               ??_timer_0_config 0071                     __CFG_CP$ON 0000  
                            _k 0020                  _update_eeprom 02A4         ??_input_pulsador_subir 0073  
            ??_timer_0_disable 0071                             l50 063D                             l44 067E  
                           l45 0671                             l46 0672                             l62 07A7  
                           l47 067F                             l80 078C                             l72 0740  
                           l65 0FED                             l58 059F                             l92 07EF  
                           l88 0766                             l98 07F6                    __CFG_CPD$ON 0000  
                 ___awdiv@sign 0077                 _max7219_config 05F3                 _max7219_brillo 078D  
                          l130 02A1                            l125 013F                            l142 07E8  
                          l126 017D                            l151 0FF3                            l119 006F  
                          l145 07DF                            l162 04E6                            l148 0FF9  
                          l172 03F7                            l341 07D2                            l522 0545  
                          l362 070B                            l339 07BF                            l365 071A  
                          l358 06F2                            l535 05F2                            l359 06F2  
                          l649 06BC                            l659 06F0                  ?_display_init 0070  
                          u900 056C                            u901 056B                            u910 0573  
                          u911 0572                            u840 066F                            u920 057A  
                          u841 066E                            u825 0645                            u921 0579  
                          u850 067E                            u834 0661                            u930 06F7  
                          u851 067D                            u835 065F                            u931 06F6  
                          u860 054D                            u940 070A                            u861 054C  
                          u941 0709                            u870 0556                            u950 0719  
                          u871 0555                            u951 0718                            u880 055F  
                          u960 07C5                            u881 055E                            u961 07C4  
                          u970 04EC                            u890 0565                            u971 04EB  
                          u891 0564                            u980 04F7                            u981 04F6  
                          u990 0508                            u991 0507                   ___awmod@sign 0077  
                 __CFG_BORV$LO 0000                            wreg 0009                   __CFG_IESO$ON 0000  
                 __CFG_LVP$OFF 0000                           l1401 0651                           l1411 066F  
                         l1403 0653                           l1501 0541                           l1413 0674  
                         l1421 0556                           l1511 05AA                           l1415 0678  
                         l1431 057A                           l1423 055F                           l1521 05BE  
                         l1513 05AC                           l1505 05A0                           l1409 0657  
                         l1433 058D                           l1425 0565                           l1417 0546  
                         l1601 0614                           l1441 0704                           l1531 05D9  
                         l1523 05C3                           l1515 05B0                           l1507 05A1  
                         l1427 056C                           l1419 054D                           l1435 07F0  
                         l1611 063B                           l1603 0620                           l1451 0713  
                         l1443 0706                           l1461 04E7                           l1533 05DE  
                         l1525 05C7                           l1517 05B5                           l1509 05A5  
                         l1429 0573                           l1621 0FE8                           l1613 078D  
                         l1605 0622                           l1453 0714                           l1445 070A  
                         l1437 06F7                           l1701 02A4                           l1471 04F7  
                         l1463 04E8                           l1527 05CB                           l1519 05BB  
                         l1535 05E4                           l1391 063E                           l1623 071B  
                         l1615 0797                           l1607 062E                           l1551 0691  
                         l1543 0680                           l1455 0719                           l1447 070E  
                         l1439 0700                           l1711 02C7                           l1703 02A9  
                         l1481 050B                           l1473 04FC                           l1465 04EC  
                         l1537 05E9                           l1529 05D5                           l1393 0640  
                         l1801 04BE                           l1641 0767                           l1625 0720  
                         l1633 0739                           l1617 0799                           l1609 0630  
                         l1561 06AD                           l1553 0695                           l1545 0683  
                         l1457 07C5                           l1449 0712                           l1721 02ED  
                         l1713 02CD                           l1705 02B4                           l1491 052B  
                         l1483 0510                           l1475 0500                           l1467 04F1  
                         l1539 05EE                           l1395 0644                           l1811 04E0  
                         l1803 04C7                           l1643 076C                           l1651 0785  
                         l1627 0731                           l1619 07A5                           l1563 06B2  
                         l1555 0699                           l1547 0689                           l1571 06C3  
                         l1731 0304                           l1723 02F1                           l1715 02D3  
                         l1707 02B8                           l1493 052C                           l1485 0514  
                         l1477 0502                           l1469 04F3                           l1397 0649  
                         l1645 077D                           l1661 0746                           l1629 0734  
                         l1637 073E                           l1813 0FEE                           l1821 0FF4  
                         l1557 06A8                           l1549 068C                           l1565 06B8  
                         l1581 06DD                           l1573 06C6                           l1741 0326  
                         l1733 0308                           l1725 02F6                           l1717 02D7  
                         l1709 02C3                           l1901 01E4                           l1495 0531  
                         l1487 0518                           l1479 0508                           l1399 064D  
                         l1807 04D7                           l1647 0780                           l1655 078A  
                         l1663 0757                           l1591 05F3                           l1815 0FF0  
                         l1823 0FF6                           l1559 06AC                           l1583 06E1  
                         l1575 06CB                           l1751 039D                           l1743 032F  
                         l1735 0310                           l1727 02FA                           l1719 02E2  
                         l1911 0248                           l1903 01FC                           l1831 0055  
                         l1489 0527                           l1497 0537                           l1665 075A  
                         l1673 0764                           l1593 05FB                           l1681 07E7  
                         l1817 0FF1                           l1825 0FF7                           l1585 06E6  
                         l1577 06CF                           l1569 06BD                           l1753 03AE  
                         l1745 0347                           l1729 0302                           l1737 031A  
                         l1921 026D                           l1913 024B                           l1905 0214  
                         l1841 0084                           l1833 0058                           l1499 053C  
                         l1659 0741                           l1595 0605                           l1691 07DA  
                         l1683 07D3                           l1819 0FF2                           l1827 0FF8  
                         l1579 06D3                           l1587 06EC                           l1763 03EE  
                         l1755 03BE                           l1747 036A                           l1739 031E  
                         l1931 0298                           l1915 0254                           l1907 022D  
                         l1851 00CA                           l1843 0086                           l1835 0069  
                         l1781 0412                           l1669 075F                           l1597 0607  
                         l1677 07E9                           l1693 07DB                           l1685 07D5  
                         l1757 03D5                           l1749 037B                           l1933 029B  
                         l1925 0276                           l1917 025D                           l1909 0236  
                         l1861 010C                           l1853 00CC                           l1845 009D  
                         l1837 006C                           l1829 0052                           l1791 043D  
                         l1783 0417                           l1775 03FF                           l1767 03F8  
                         l1599 0612                           l1679 07E0                           l1695 07DC  
                         l1687 07D7                           l1759 03DE                           l1927 027C  
                         l1871 0165                           l1863 0110                           l1855 00E3  
                         l1839 0078                           l1847 00B5                           l1785 0424  
                         l1769 03FB                           l1697 07DD                           l1689 07D8  
                         l1929 028A                           l1881 01A0                           l1873 0188  
                         l1865 0127                           l1849 00BE                           l1857 00FB  
                         l1795 0446                           l1787 042D                           l1779 0404  
                         l1699 07DE                           l1891 01C0                           l1883 01A9  
                         l1875 0192                           l1867 014A                           l1859 0102  
                         l1797 0457                           l1893 01C6                           l1877 0196  
                         l1869 014E                           l1799 04B7                           l1895 01C9  
                         l1887 01B7                           l1879 0199                           l1897 01CB  
                         l1899 01CD                           u1010 0518                           u1011 0517  
                         u1005 050C                           u1030 0527                           u1110 05CB  
                         u1031 0526                           u1111 05CA                           u1120 05D5  
                         u1200 06A8                           u1025 0519                           u1121 05D4  
                         u1105 05BF                           u1201 06A7                           u1050 0537  
                         u1051 0536                           u1035 0523                           u1060 053C  
                         u1140 05E4                           u1300 0720                           u1220 06B8  
                         u1061 053B                           u1045 052D                           u1141 05E3  
                         u1125 05D1                           u1301 071F                           u1221 06B7  
                         u1205 06A4                           u1150 05E9                           u1070 05A5  
                         u1310 0731                           u1230 06C3                           u1151 05E8  
                         u1135 05DA                           u1071 05A4                           u1311 0730  
                         u1215 06AE                           u1231 06C2                           u1080 05B0  
                         u1320 076C                           u1160 0689                           u1400 03ED  
                         u1081 05AF                           u1321 076B                           u1161 0688  
                         u1401 03EC                           u1090 05BB                           u1410 0424  
                         u1330 077D                           u1250 06D3                           u1091 05BA  
                         u1411 0423                           u1331 077C                           u1315 072D  
                         u1251 06D2                           u1420 043C                           u1340 0746  
                         u1180 0699                           u1260 06DD                           u1500 010C  
                         u1421 043B                           u1341 0745                           u1181 0698  
                         u1261 06DC                           u1245 06C7                           u1501 010B  
                         u1430 0457                           u1350 0757                           u1510 014A  
                         u1431 0456                           u1415 0420                           u1335 0779  
                         u1351 0756                           u1175 068D                           u1511 0149  
                         u1440 04D6                           u1280 06EC                           u1360 02CD  
                         u1520 0188                           u1441 04D5                           u1281 06EB  
                         u1265 06D9                           u1361 02CC                           u1521 0187  
                         u1505 0108                           u1290 0797                           u1370 02D3  
                         u1530 0192                           u1450 0078                           u1435 0453  
                         u1355 0753                           u1291 0796                           u1195 069A  
                         u1275 06E2                           u1371 02D2                           u1531 0191  
                         u1515 0146                           u1451 0077                           u1540 01B6  
                         u1460 0084                           u1541 01B5                           u1525 0184  
                         u1461 0083                           u1390 0302                           u1550 0236  
                         u1470 00BE                           u1391 0301                           u1551 0235  
                         u1535 018E                           u1471 00BD                           u1560 026C  
                         u1480 00CA                           u1385 02F2                           u1561 026B  
                         u1481 00C9                           u1570 028A                           u1490 0102  
                         u1571 0289                           u1491 0101                           u1580 0298  
                         u1581 0297                           u1575 0286                           u1585 0294  
            _last_minutos_temp 002A                           _TMR0 0015                 ??_eeprom_write 0072  
                 __CFG_WRT$OFF 0000                           _dig1 0045                           _dig2 003A  
                         _main 0052                           fsr0h 0005                           fsr1h 0007  
                         indf0 0000                           fsr0l 0004                           indf1 0001  
                         fsr1l 0006                           btemp 007E          __size_of_output_relay 0007  
                         start 0038                 ?_update_eeprom 0070         __end_of_max7219_config 063E  
       __end_of_max7219_brillo 07A8                  __CFG_PLLEN$ON 0000             max7219_brillo@data 0050  
               ??_display_init 0059                          ?_main 0070                __end_of___awdiv 0546  
                        _EEADR 0191                  __CFG_WDTE$OFF 0000                __end_of___awmod 05F3  
              ___awdiv@divisor 0071                __end_of___lwdiv 06BD                          i1l182 0036  
              __end_of___lwmod 06F1                ___awdiv@counter 0076                  __CFG_PWRTE$ON 0000  
               __CFG_FCMEN$OFF 0000                   _output_relay 07F0         __size_of_output_config 0007  
                        _myISR 0004                 __CFG_BOREN$OFF 0000                          status 0003  
                        wtemp0 007E     __size_of_oscillator_config 0009                 __CFG_MCLRE$OFF 0000  
              __initialization 003A                   __end_of_main 02A4                ?_max7219_config 0070  
              ?_max7219_brillo 0050                         ??_main 0065                         ?_myISR 0070  
                       _EEDATA 0193                         _EECON1 0195                         _EECON2 0196  
             ___awdiv@dividend 0073                         i1l1941 0010                         i1l1951 0034  
                       i1l1943 0011                         i1l1935 0006                         i1l1945 0022  
                       i1l1937 000A                         i1l1947 0025                         i1l1939 000E  
                       i1l1949 0030                         u160_20 000E                         u160_21 000D  
                       u161_20 0022                         u161_21 0021                         u161_25 001E  
                       u162_20 0030                         u162_21 002F                         u159_20 000A  
                       u159_21 0009                ??_update_eeprom 0059             _last_segundos_temp 0028  
            _max7219_writeChar 0546           __size_of_eeprom_read 0015                  _output_config 07E9  
           _update_eeprom$1084 005D             _update_eeprom$1085 005B             ?_max7219_writeChar 0053  
                    ??___awdiv 0075                      ??___awmod 0075                      ??___lwdiv 007B  
                    ??___lwmod 0075               ___awdiv@quotient 0078                ___awmod@divisor 0071  
         __end_of_eeprom_write 071B                ___awmod@counter 0076                         myISR@f 0024  
          ??_max7219_writeChar 0057              _input_pulsador_ok 0741                  display_init@i 005A  
                display_init@j 005C             ?_input_pulsador_ok 0071            ??_input_pulsador_ok 0073  
      __end_of__initialization 004E                _timer_0_disable 0FEE                eeprom_read@addr 0074  
         __end_of_display_init 04E7      __end_of_max7219_writeChar 05A0                 ?_output_config 0070  
               __pcstackCOMMON 0070                   __pidataBANK0 07A8                  __end_of_myISR 0038  
                ?_input_config 0070      __end_of_input_pulsador_ok 0767                 _OPTION_REGbits 0095  
            eeprom_write@value 0071                        ??_myISR 0070       __size_of___max7219_write 0042  
                   __pbssBANK0 0020                     __pmaintext 0052  __size_of_input_pulsador_bajar 0026  
                   __pintentry 0004                 ??_input_config 0071  __size_of_input_pulsador_subir 0026  
      __end_of_timer_0_disable 0FF4     __size_of_max7219_writeChar 005A               ??_max7219_config 007D  
             ??_max7219_brillo 007D                ??_output_config 0071          __size_of_eeprom_write 002A  
                      ___awdiv 04E7                        ___awmod 05A0                        ___lwdiv 0680  
                      ___lwmod 06BD                __CFG_STVREN$OFF 0000   input_pulsador_subir@contador 0038  
   __size_of_input_pulsador_ok 0026                        __ptext1 02A4                        __ptext2 06F1  
                      __ptext3 07BE                        __ptext4 06BD                        __ptext5 0680  
                      __ptext6 0FF4                        __ptext7 0FEE                        __ptext8 07D3  
                      __ptext9 07E9        __size_of_timer_0_enable 0006               ___awmod@dividend 0073  
      __size_of_timer_0_config 000D                        _proceso 0026                        clrloop0 0FFB  
        __size_of_display_init 00EF           end_of_initialization 004E                        init_ram 07F7  
                 _eeprom_write 06F1                        initloop 07F8              ??___max7219_write 0075  
         ___max7219_write@data 0073          max7219_writeChar@data 0055       ___max7219_write@dataSend 0079  
                    _PORTAbits 000C                      _PORTCbits 000E                   _display_init 03F8  
             __CFG_FOSC$INTOSC 0000                      _TRISAbits 008C                      _TRISCbits 008E  
             ?_timer_0_disable 0070           __end_of_input_config 0FEE                  ??_eeprom_read 0071  
        __end_of_update_eeprom 03F8              update_eeprom@var1 005F              update_eeprom@var2 0061  
            update_eeprom@usos 0063            start_initialization 003A            __end_of_eeprom_read 07D3  
                  __pdataBANK0 003A                 _timer_0_enable 0FF4                 _timer_0_config 07D3  
                    ___latbits 0001                  __pcstackBANK0 0050                  ?_output_relay 0071  
 __end_of_input_pulsador_bajar 078D   __end_of_input_pulsador_subir 0741               eeprom_write@addr 0074  
             ___lwdiv@dividend 0079                       ?___awdiv 0071                       ?___awmod 0071  
                     ?___lwdiv 0077                       ?___lwmod 0071         __end_of_timer_0_enable 0FFA  
       __end_of_timer_0_config 07E0                  output_relay@d 0071          __size_of_input_config 0006  
               ??_output_relay 0073                ___max7219_write 063E               ___lwdiv@quotient 0050  
               __size_of_myISR 0034                  _segundos_temp 002C                       _LATAbits 010C  
                     _LATCbits 010E                      clear_ram0 0FFA                    _eeprom_read 07BE  
        __end_of_output_config 07F0        ___max7219_write@address 0071           max7219_writeChar@pos 0053  
                 _input_config 0FE8                ?_timer_0_enable 0070                ?_timer_0_config 0070  
    input_pulsador_ok@contador 0034                     _EECON1bits 0195                   _minutos_temp 002E  
            ___max7219_write@i 007B           _input_pulsador_bajar 0767               __size_of___awdiv 005F  
             __size_of___awmod 0053               __size_of___lwdiv 003D               __size_of___lwmod 0034  
         _input_pulsador_subir 071B        __size_of_max7219_config 004B        __size_of_max7219_brillo 001B  
      __end_of___max7219_write 0680                ___lwdiv@divisor 0077                ___lwdiv@counter 0052  
                     __ptext10 07E0                       __ptext11 05F3                       __ptext20 063E  
                     __ptext12 078D                       __ptext21 05A0                       __ptext13 071B  
                     __ptext22 04E7                       __ptext14 0741                       __ptext15 0767  
                     __ptext16 0FE8                       __ptext17 03F8                       __ptext18 07F0  
                     __ptext19 0546                  __size_of_main 0252                   _segundos_set 0030  
     __size_of_timer_0_disable 0006           __end_of_output_relay 07F7          ?_input_pulsador_bajar 0071  
                     int$flags 007E          ?_input_pulsador_subir 0071   input_pulsador_bajar@contador 0036  
                   _INTCONbits 000B                    _minutos_set 0032         __size_of_update_eeprom 0154  
                     intlevel1 0000               ___lwmod@dividend 0073              __CFG_CLKOUTEN$OFF 0000  
                   _OSCCONbits 0099              _oscillator_config 07E0             ?_oscillator_config 0070  
             ?___max7219_write 0071            ??_oscillator_config 0071                ___lwmod@divisor 0071  
              ___lwmod@counter 0076                  ?_eeprom_write 0071                     _STATUSbits 0003  
                 ?_eeprom_read 0070      __end_of_oscillator_config 07E9         ??_input_pulsador_bajar 0073  
